(dp0
S'among'
p1
(dp2
S'difference'
p3
I0
sS'two'
p4
I0
sS'this'
p5
I2
sS'a'
p6
I16
sS'them'
p7
I30
sS'relationship'
p8
I0
sS'that'
p9
I10
sS'and'
p10
I43
sS'the'
p11
I129
sS'are'
p12
I8
sS'distinction'
p13
I0
sS'an'
p14
I1
sS'these'
p15
I3
sS'is'
p16
I13
sS'in'
p17
I18
sS'as'
p18
I4
sS'for'
p19
I4
sS'of'
p20
I42
sS'or'
p21
I1
sS'was'
p22
I9
sS'differences'
p23
I1
sS'but'
p24
I9
sS'he'
p25
I4
sS'no'
p26
I1
sS'other'
p27
I10
ssS'right'
p28
(dp29
S'all'
p30
I59
sS'to'
p31
I127
sg6
I53
sS'its'
p32
I11
sS'then'
p33
I10
sS'they'
p34
I9
sS'not'
p35
I10
sS'now'
p36
I14
sS'out'
p37
I7
sS'could'
p38
I2
sS'their'
p39
I7
sS'that'
p40
I12
sS'and'
p41
I61
sS'have'
p42
I14
sS'his'
p43
I24
sS'him'
p44
I9
sS'said'
p45
I21
sS'here'
p46
I11
sS'is'
p47
I25
sS'it'
p48
I23
sS'in'
p49
I37
sS'the'
p50
I209
sS'left'
p51
I10
sS'had'
p52
I13
sS'for'
p53
I16
sS'be'
p54
I20
sS'on'
p55
I40
sS'about'
p56
I4
sS'of'
p57
I62
sS'was'
p58
I39
sS'but'
p59
I15
sS'with'
p60
I14
sS'he'
p61
I23
sS'up'
p62
I12
sS'as'
p63
I13
sS'at'
p64
I17
sS'you'
p65
I16
ssS'angel'
p66
(dp67
S'is'
p68
I1
sS'of'
p69
I1
ssS'less'
p70
(dp71
S'to'
p72
I31
sS'far'
p73
I10
sS'more'
p74
I44
sg6
I47
sS'developed'
p75
I12
sS'not'
p76
I12
sS'that'
p77
I18
sS'than'
p78
I138
sS'were'
p79
I10
sS'and'
p80
I49
sS'have'
p81
I10
sS'but'
p82
I11
sS'are'
p83
I17
sS'much'
p84
I10
sS'is'
p85
I33
sS'it'
p86
I13
sS'in'
p87
I37
sS'the'
p88
I81
sS'less'
p89
I14
sS'for'
p90
I24
sS'be'
p91
I14
sS'by'
p92
I12
sS'of'
p93
I47
sS'or'
p94
I40
sS'there'
p95
I7
sS'was'
p96
I27
sS'with'
p97
I14
sS'no'
p98
I13
ssS'being'
p99
(dp100
S'to'
p101
I67
sS'from'
p102
I18
sS'this'
p103
I20
sg6
I70
sS'so'
p104
I10
sS'they'
p105
I14
sS'not'
p106
I12
sS'their'
p107
I8
sS'that'
p108
I27
sS'were'
p109
I22
sS'and'
p110
I60
sS'which'
p111
I12
sS'who'
p112
I7
sS'his'
p113
I20
sS'made'
p114
I13
sS'are'
p115
I40
sS'is'
p116
I56
sS'it'
p117
I15
sS'in'
p118
I69
sS'without'
p119
I13
sS'the'
p120
I167
sS'human'
p121
I13
sS'for'
p122
I42
sS'by'
p123
I40
sS'on'
p124
I22
sS'about'
p125
I9
sS'of'
p126
I113
sS'or'
p127
I16
sS'into'
p128
I14
sS'her'
p129
I11
sS'there'
p130
I8
sS'was'
p131
I39
sS'with'
p132
I27
sS'he'
p133
I18
sS'an'
p134
I17
sS'as'
p135
I31
sS'at'
p136
I16
sS'out'
p137
I10
ssS'there'
p138
(dp139
S'never'
p140
I10
sS'here'
p141
I18
sS'would'
p142
I39
sS'must'
p143
I12
sS'me'
p144
I11
sS'work'
p145
I7
sS'give'
p146
I0
sS'after'
p147
I5
sS'before'
p148
I5
sS'then'
p149
I29
sS'they'
p150
I8
sS'several'
p151
I8
sS'each'
p152
I2
sS'got'
p153
I11
sS'though'
p154
I14
sS'do'
p155
I5
sS'best'
p156
I1
sS'men'
p157
I5
sS'however'
p158
I13
sS'against'
p159
I1
sS'been'
p160
I76
sS'much'
p161
I15
sS'life'
p162
I4
sS'is'
p163
I315
sS'in'
p164
I123
sS'things'
p165
I7
sS'make'
p166
I0
sS'just'
p167
I10
sS'has'
p168
I25
sS'old'
p169
I3
sS'people'
p170
I4
sS'for'
p171
I47
sS'down'
p172
I7
sS'way'
p173
I10
sS'was'
p174
I326
sS'evidence'
p175
I10
sS'looked'
p176
I2
sS'such'
p177
I17
sS'indeed'
p178
I8
sS'still'
p179
I34
sS'now'
p180
I23
sS'quite'
p181
I8
sS'place'
p182
I5
sS'one'
p183
I36
sS'long'
p184
I15
sS'eyes'
p185
I1
sS'than'
p186
I2
sS'future'
p187
I1
sS'were'
p188
I131
sS'any'
p189
I18
sS'where'
p190
I24
sS'many'
p191
I29
sS'those'
p192
I2
sS'these'
p193
I2
sS'no'
p194
I179
sS'money'
p195
I2
sS'or'
p196
I16
sS'her'
p197
I14
sS'there'
p198
I10
sS'with'
p199
I17
sS'you'
p200
I22
sS'children'
p201
I1
sS'to'
p202
I109
sS'stood'
p203
I19
sS'experience'
p204
I1
sS'social'
p205
I3
sS'family'
p206
I2
sS'put'
p207
I1
sS'horses'
p208
I0
sg6
I242
sS'through'
p209
I3
sS'might'
p210
I9
sS'always'
p211
I11
sS'since'
p212
I9
sS'reason'
p213
I14
sS'members'
p214
I0
sS'feet'
p215
I1
sS'heads'
p216
I0
sS'relationship'
p217
I1
sS'part'
p218
I3
sS'toward'
p219
I0
sS'also'
p220
I16
sS'most'
p221
I5
sS'nothing'
p222
I25
sS'during'
p223
I3
sS'are'
p224
I179
sS'both'
p225
I2
sS'lives'
p226
I0
sS'some'
p227
I44
sS'be'
p228
I133
sS'by'
p229
I11
sS'into'
p230
I4
sS'question'
p231
I8
sS'use'
p232
I4
sS'from'
p233
I10
sS'few'
p234
I12
sS'on'
p235
I28
sS'this'
p236
I26
sS'of'
p237
I106
sS'something'
p238
I15
sS'hands'
p239
I0
sS'day'
p240
I3
sS'their'
p241
I1
sS'who'
p242
I10
sS'should'
p243
I12
sS'she'
p244
I21
sS'minds'
p245
I0
sS'an'
p246
I39
sS'home'
p247
I1
sS'own'
p248
I1
sS'but'
p249
I108
sS'he'
p250
I60
sS'made'
p251
I2
sS'whether'
p252
I11
ssS'number'
p253
(dp254
S'to'
p255
I29
sS'large'
p256
I23
sS'from'
p257
I9
sS'this'
p258
I7
sg6
I147
sS'years'
p259
I10
sS'that'
p260
I17
sS'and'
p261
I38
sS'any'
p262
I7
sS'which'
p263
I7
sS'who'
p264
I12
sS'are'
p265
I18
sS'is'
p266
I22
sS'in'
p267
I43
sS'the'
p268
I170
sS'people'
p269
I14
sS'for'
p270
I22
sS'by'
p271
I21
sS'on'
p272
I16
sS'of'
p273
I314
sS'with'
p274
I14
sS'as'
p275
I9
ssS'accept'
p276
(dp277
S'to'
p278
I25
sS'for'
p279
I3
sS'of'
p280
I8
sS'was'
p281
I2
sS'that'
p282
I3
sS'he'
p283
I4
sS'and'
p284
I4
sS'in'
p285
I1
sg6
I4
sS'the'
p286
I19
ssS'two'
p287
(dp288
S'limited'
p289
I0
sS'four'
p290
I4
sS'sleep'
p291
I0
sS'consider'
p292
I2
sS'whose'
p293
I1
sS'under'
p294
I4
sS'rise'
p295
I0
sS'every'
p296
I0
sS'solution'
p297
I0
sS'force'
p298
I0
sS'leaders'
p299
I1
sS'direct'
p300
I0
sS'second'
p301
I3
sS'street'
p302
I0
sS'even'
p303
I4
sS'hide'
p304
I0
sS'contributed'
p305
I0
sS'above'
p306
I0
sS'new'
p307
I5
sS'ever'
p308
I0
sS'told'
p309
I3
sS'join'
p310
I1
sS'here'
p311
I7
sS'dry'
p312
I1
sS'study'
p313
I1
sS'climbed'
p314
I0
sS'completely'
p315
I1
sS'credit'
p316
I0
sS'permit'
p317
I1
sS'military'
p318
I0
sS'changes'
p319
I1
sS'brought'
p320
I0
sS'charge'
p321
I0
sS'would'
p322
I3
sS'achieve'
p323
I0
sS'arms'
p324
I3
sS'music'
p325
I0
sS'therefore'
p326
I1
sS'type'
p327
I0
sS'tell'
p328
I0
sS'brings'
p329
I0
sS'hold'
p330
I0
sS'must'
p331
I3
sS'me'
p332
I3
sS'word'
p333
I1
sS'room'
p334
I2
sS'work'
p335
I1
sS'im'
p336
I1
sS'my'
p337
I6
sS'give'
p338
I0
sS'want'
p339
I0
sS'keep'
p340
I3
sS'admission'
p341
I0
sS'end'
p342
I0
sS'thing'
p343
I0
sS'provide'
p344
I1
sS'how'
p345
I1
sS'writers'
p346
I0
sS'answer'
p347
I0
sS'lay'
p348
I1
sS'president'
p349
I1
sS'law'
p350
I1
sS'parallel'
p351
I3
sS'types'
p352
I7
sS'attempt'
p353
I0
sS'effective'
p354
I0
sS'maintain'
p355
I1
sS'suggest'
p356
I0
sS'operate'
p357
I0
sS'order'
p358
I2
sS'belong'
p359
I0
sS'office'
p360
I0
sS'devote'
p361
I0
sS'over'
p362
I4
sS'fit'
p363
I0
sS'personal'
p364
I1
sS'writing'
p365
I1
sS'better'
p366
I2
sS'weeks'
p367
I23
sS'easier'
p368
I1
sS'them'
p369
I13
sS'safe'
p370
I0
sS'school'
p371
I2
sS'break'
p372
I0
sS'effects'
p373
I1
sS'they'
p374
I15
sS'schools'
p375
I3
sS'reasonable'
p376
I1
sS'each'
p377
I12
sS'went'
p378
I5
sS'side'
p379
I1
sS'mean'
p380
I0
sS'principles'
p381
I3
sS'taught'
p382
I2
sS'god'
p383
I0
sS'encourage'
p384
I0
sS'got'
p385
I2
sS'written'
p386
I1
sS'given'
p387
I0
sS'free'
p388
I2
sS'standard'
p389
I1
sS'wanted'
p390
I1
sS'moving'
p391
I1
sS'already'
p392
I1
sS'another'
p393
I6
sS'service'
p394
I0
sS'top'
p395
I1
sS'girls'
p396
I1
sS'needed'
p397
I0
sS'too'
p398
I0
sS'john'
p399
I0
sS'listen'
p400
I0
sS'serve'
p401
I0
sS'took'
p402
I3
sS'somewhat'
p403
I0
sS'begins'
p404
I0
sS'likely'
p405
I0
sS'nations'
p406
I2
sS'project'
p407
I0
sS'matter'
p408
I0
sS'bridge'
p409
I1
sS'ran'
p410
I1
sS'modern'
p411
I0
sS'mind'
p412
I0
sS'seen'
p413
I1
sS'seem'
p414
I0
sS'seek'
p415
I1
sS'forced'
p416
I0
sS'strength'
p417
I0
sS'that'
p418
I40
sS'1960'
p419
I1
sS'subjects'
p420
I0
sS'forces'
p421
I3
sS'exactly'
p422
I1
sS'shall'
p423
I0
sS'germany'
p424
I0
sS'letter'
p425
I0
sS'medical'
p426
I0
sS'came'
p427
I4
sS'attempts'
p428
I0
sS'earth'
p429
I0
sS'proposed'
p430
I0
sS'explain'
p431
I0
sS'do'
p432
I6
sS'10'
p433
I1
sS'watch'
p434
I0
sS'report'
p435
I0
sS'countries'
p436
I6
sS'method'
p437
I0
sS'secretary'
p438
I0
sS'respond'
p439
I0
sS'decided'
p440
I1
sS'cattle'
p441
I0
sS'fail'
p442
I0
sS'best'
p443
I6
sS'techniques'
p444
I1
sS'said'
p445
I2
sS'capacity'
p446
I0
sS'away'
p447
I2
sS'unable'
p448
I0
sS'approach'
p449
I0
sS'we'
p450
I12
sS'never'
p451
I3
sS'however'
p452
I0
sS'extent'
p453
I0
sS'improve'
p454
I0
sS'country'
p455
I1
sS'ill'
p456
I0
sS'against'
p457
I2
sS'planned'
p458
I0
sS'contribution'
p459
I0
sS'asked'
p460
I0
sS'appeared'
p461
I2
sS'trust'
p462
I1
sS'speak'
p463
I0
sS'union'
p464
I1
sS'been'
p465
I10
sS'interest'
p466
I1
sS'basic'
p467
I2
sS'expected'
p468
I1
sS'child'
p469
I0
sS'catch'
p470
I0
sS'applied'
p471
I0
sS'east'
p472
I1
sS'air'
p473
I0
sS'aim'
p474
I0
sS'near'
p475
I0
sS'applies'
p476
I0
sS'aid'
p477
I0
sS'voice'
p478
I0
sS'changed'
p479
I0
sS'is'
p480
I18
sS'it'
p481
I23
sS'cant'
p482
I1
sS'in'
p483
I135
sS'id'
p484
I0
sS'if'
p485
I4
sS'things'
p486
I7
sS'make'
p487
I1
sS'several'
p488
I2
sS'entitled'
p489
I0
sS'pick'
p490
I0
sS'hand'
p491
I1
sS'action'
p492
I1
sS'opportunity'
p493
I0
sS'settled'
p494
I0
sS'youre'
p495
I0
sS'mother'
p496
I0
sS'claims'
p497
I0
sS'the'
p498
I370
sS'musical'
p499
I0
sS'left'
p500
I4
sS'just'
p501
I6
sS'assigned'
p502
I0
sS'human'
p503
I3
sS'yet'
p504
I1
sS'had'
p505
I33
sS'belongs'
p506
I0
sS'board'
p507
I0
sS'easy'
p508
I0
sS'has'
p509
I9
sS'gave'
p510
I4
sS'possible'
p511
I4
sS'desire'
p512
I0
sS'specific'
p513
I0
sS'steps'
p514
I7
sS'night'
p515
I1
sS'right'
p516
I1
sS'deal'
p517
I0
sS'people'
p518
I7
sS'escape'
p519
I0
sS'unless'
p520
I1
sS'for'
p521
I67
sS'everything'
p522
I0
sS'continue'
p523
I1
sS'particular'
p524
I2
sS'post'
p525
I0
sS'permitted'
p526
I0
sS'costs'
p527
I1
sS'dinner'
p528
I1
sS'efforts'
p529
I1
sS'bound'
p530
I0
sS'down'
p531
I5
sS'often'
p532
I0
sS'support'
p533
I0
sS'class'
p534
I1
sS'way'
p535
I0
sS'call'
p536
I0
sS'was'
p537
I20
sS'war'
p538
I2
sS'happy'
p539
I0
sS'head'
p540
I0
sS'form'
p541
I3
sS'offer'
p542
I1
sS'attempted'
p543
I0
sS'failure'
p544
I0
sS'heat'
p545
I0
sS'hear'
p546
I0
sS'true'
p547
I1
sS'inside'
p548
I1
sS'attached'
p549
I0
sS'proved'
p550
I1
sS'evidence'
p551
I0
sS'ship'
p552
I0
sS'trip'
p553
I0
sS'physical'
p554
I0
sS'no'
p555
I8
sS'when'
p556
I12
sS'handed'
p557
I0
sS'test'
p558
I0
sS'picture'
p559
I0
sS'felt'
p560
I0
sS'billion'
p561
I0
sS'longer'
p562
I1
sS'assume'
p563
I0
sS'together'
p564
I4
sS'time'
p565
I5
sS'push'
p566
I0
sS'serious'
p567
I0
sS'managed'
p568
I0
sS'dance'
p569
I1
sS'leads'
p570
I0
sS'battle'
p571
I1
sS'devoted'
p572
I0
sS'certainly'
p573
I0
sS'william'
p574
I1
sS'father'
p575
I0
sS'finally'
p576
I0
sS'asking'
p577
I0
sS'brown'
p578
I0
sS'advantage'
p579
I0
sS'trouble'
p580
I0
sS'governments'
p581
I5
sS'level'
p582
I0
sS'did'
p583
I1
sS'standards'
p584
I0
sS'leave'
p585
I0
sS'prevent'
p586
I0
sS'talked'
p587
I0
sS'says'
p588
I1
sS'discover'
p589
I0
sS'literature'
p590
I0
sS'sign'
p591
I0
sS'cost'
p592
I1
sS'appear'
p593
I0
sS'goes'
p594
I0
sS'appeal'
p595
I0
sS'water'
p596
I2
sS'alone'
p597
I1
sS'along'
p598
I3
sS'appears'
p599
I0
sS'change'
p600
I1
sS'wait'
p601
I1
sS'boy'
p602
I0
sS'example'
p603
I1
sS'trial'
p604
I0
sS'usually'
p605
I2
sS'love'
p606
I0
sS'merely'
p607
I0
sS'working'
p608
I2
sS'prove'
p609
I0
sS'visit'
p610
I0
sS'live'
p611
I0
sS'today'
p612
I0
sS'entrance'
p613
I0
sS'clue'
p614
I0
sS'effort'
p615
I0
sS'fly'
p616
I0
sS'anything'
p617
I0
sS'car'
p618
I2
sS'values'
p619
I1
sS'can'
p620
I10
sS'making'
p621
I0
sS'attain'
p622
I0
sS'heart'
p623
I1
sS'dropped'
p624
I1
sS'allowed'
p625
I2
sS'occur'
p626
I0
sS'means'
p627
I1
sS'1'
p628
I2
sS'may'
p629
I4
sS'use'
p630
I3
sS'produce'
p631
I0
sS'designed'
p632
I1
sS'date'
p633
I1
sS'data'
p634
I2
sS'grow'
p635
I0
sS'man'
p636
I4
sS'stress'
p637
I0
sS'natural'
p638
I0
sS'remember'
p639
I1
sS'rather'
p640
I1
sS'so'
p641
I4
sS'increase'
p642
I0
sS'talk'
p643
I0
sS'course'
p644
I0
sS'still'
p645
I0
sS'tendency'
p646
I0
sS'police'
p647
I0
sS'policy'
p648
I0
sS'happened'
p649
I1
sS'nation'
p650
I0
sS'not'
p651
I10
sS'now'
p652
I4
sS'hall'
p653
I0
sS'wont'
p654
I0
sS'term'
p655
I1
sS'name'
p656
I2
sS'entirely'
p657
I0
sS'begun'
p658
I0
sS'year'
p659
I6
sS'girl'
p660
I1
sS'tried'
p661
I0
sS'living'
p662
I2
sS'space'
p663
I0
sS'looking'
p664
I0
sS'after'
p665
I16
sS'theory'
p666
I0
sS'million'
p667
I4
sS'quite'
p668
I1
sS'care'
p669
I0
sS'training'
p670
I1
sS'turn'
p671
I0
sS'place'
p672
I3
sS'think'
p673
I0
sS'first'
p674
I26
sS'one'
p675
I52
sS'directly'
p676
I3
sS'carry'
p677
I0
sS'impossible'
p678
I0
sS'message'
p679
I0
sS'fight'
p680
I0
sS'open'
p681
I0
sS'city'
p682
I0
sS'little'
p683
I3
sS'anyone'
p684
I0
sS'indicate'
p685
I0
sS'2'
p686
I0
sS'white'
p687
I1
sS'national'
p688
I2
sS'friend'
p689
I1
sS'gives'
p690
I0
sS'eyes'
p691
I1
sS'cope'
p692
I0
sS'than'
p693
I18
sS'population'
p694
I0
sS'third'
p695
I0
sS'transferred'
p696
I0
sS'future'
p697
I0
sS'were'
p698
I41
sS'and'
p699
I152
sS'turned'
p700
I0
sS'say'
p701
I1
sS'any'
p702
I4
sS'note'
p703
I1
sS'take'
p704
I5
sS'objective'
p705
I0
sS'destroy'
p706
I0
sS'begin'
p707
I0
sS'sure'
p708
I1
sS'normal'
p709
I0
sS'price'
p710
I1
sS'knew'
p711
I0
sS'paid'
p712
I1
sS'america'
p713
I0
sS'especially'
p714
I2
sS'later'
p715
I4
sS'drive'
p716
I1
sS'mrs'
p717
I1
sS'slaves'
p718
I0
sS'show'
p719
I3
sS'ground'
p720
I1
sS'behind'
p721
I2
sS'only'
p722
I18
sS'going'
p723
I2
sS'get'
p724
I1
sS'cannot'
p725
I1
sS'nearly'
p726
I1
sS'yield'
p727
I1
sS'where'
p728
I2
sS'husband'
p729
I1
sS'college'
p730
I0
sS'concern'
p731
I0
sS'federal'
p732
I1
sS'3'
p733
I1
sS'between'
p734
I41
sS'reading'
p735
I0
sS'across'
p736
I3
sS'come'
p737
I3
sS'reaction'
p738
I0
sS'many'
p739
I2
sS'according'
p740
I0
sS'comes'
p741
I1
sS'duty'
p742
I1
sS'among'
p743
I0
sS'period'
p744
I2
sS'learning'
p745
I0
sS'save'
p746
I0
sS'west'
p747
I0
sS'wants'
p748
I0
sS'enable'
p749
I0
sS'offered'
p750
I0
sS'careful'
p751
I0
sS'spirit'
p752
I1
sS'those'
p753
I9
sS'case'
p754
I2
sS'myself'
p755
I0
sS'these'
p756
I30
sS'taking'
p757
I0
sS'ive'
p758
I0
sS'then'
p759
I6
sS'someone'
p760
I0
sS'property'
p761
I1
sS'worry'
p762
I0
sS'develop'
p763
I0
sS'doctor'
p764
I0
sS'pay'
p765
I1
sS'same'
p766
I1
sS'check'
p767
I0
sS'extended'
p768
I0
sS'intended'
p769
I0
sS'floor'
p770
I0
sS'without'
p771
I1
sS'inability'
p772
I0
sS'being'
p773
I1
sS'money'
p774
I0
sS'rest'
p775
I0
sS'kill'
p776
I0
sS'touch'
p777
I0
sS'blow'
p778
I0
sS'death'
p779
I2
sS'rose'
p780
I1
sS'seems'
p781
I0
sS'except'
p782
I2
sS'real'
p783
I2
sS'around'
p784
I2
sS'read'
p785
I2
sS'listening'
p786
I1
sS'confined'
p787
I0
sS'world'
p788
I3
sS'audience'
p789
I0
sS'fully'
p790
I0
sS'reduced'
p791
I0
sS'exposed'
p792
I0
sS'refer'
p793
I0
sS'power'
p794
I2
sS'refers'
p795
I0
sS'throw'
p796
I0
sS'on'
p797
I34
sS'central'
p798
I2
sS'island'
p799
I3
sS'industry'
p800
I1
sS'stand'
p801
I2
sS'act'
p802
I0
sS'road'
p803
I1
sS'determine'
p804
I0
sS'parties'
p805
I2
sS'your'
p806
I0
sS'her'
p807
I6
sS'area'
p808
I2
sS'start'
p809
I1
sS'low'
p810
I0
sS'lot'
p811
I0
sS'complete'
p812
I1
sS'enough'
p813
I2
sS'regard'
p814
I0
sS'trying'
p815
I1
sS'with'
p816
I38
sS'pull'
p817
I0
sS'gone'
p818
I0
sS'af'
p819
I9
sS'certain'
p820
I0
sS'describe'
p821
I1
sS'moved'
p822
I1
sS'an'
p823
I8
sS'as'
p824
I18
sS'at'
p825
I31
sS'file'
p826
I0
sS'fill'
p827
I0
sS'again'
p828
I0
sS'field'
p829
I0
sS'5'
p830
I0
sS'congress'
p831
I0
sS'separate'
p832
I4
sS'students'
p833
I1
sS'important'
p834
I6
sS'represent'
p835
I0
sS'all'
p836
I7
sS'forget'
p837
I0
sS'chinese'
p838
I0
sS'caused'
p839
I0
sS'month'
p840
I1
sS'follow'
p841
I0
sS'referring'
p842
I0
sS'subjected'
p843
I0
sS'program'
p844
I0
sS'sound'
p845
I0
sS'woman'
p846
I0
sS'returned'
p847
I0
sS'very'
p848
I2
sS'decide'
p849
I0
sS'fall'
p850
I4
sS'difference'
p851
I6
sS'enter'
p852
I0
sS'large'
p853
I3
sS'small'
p854
I3
sS'past'
p855
I2
sS'design'
p856
I0
sS'pass'
p857
I1
sS'further'
p858
I1
sS'what'
p859
I1
sS'stood'
p860
I1
sS'tribute'
p861
I0
sS'public'
p862
I1
sS'contrast'
p863
I0
sS'movement'
p864
I0
sS'full'
p865
I2
sS'christian'
p866
I0
sS'table'
p867
I1
sS'ahead'
p868
I2
sS'experience'
p869
I0
sS'prior'
p870
I0
sS'social'
p871
I2
sS'family'
p872
I0
sS'suddenly'
p873
I1
sS'ask'
p874
I0
sS'establish'
p875
I0
sS'two'
p876
I4
sS'taken'
p877
I1
sS'more'
p878
I23
sS'door'
p879
I1
sS'company'
p880
I1
sS'known'
p881
I1
sS'glad'
p882
I0
sS'town'
p883
I0
sS'include'
p884
I0
sS'hour'
p885
I3
sS'remain'
p886
I1
sS'learn'
p887
I0
sS'history'
p888
I0
sS'accept'
p889
I0
sS'states'
p890
I2
sS'numbers'
p891
I3
sS'sense'
p892
I0
sS'information'
p893
I2
sS'needs'
p894
I0
sS'court'
p895
I0
sS'plans'
p896
I0
sS'coming'
p897
I1
sS'response'
p898
I1
sg6
I67
sS'short'
p899
I1
sS'help'
p900
I1
sS'mission'
p901
I0
sS'held'
p902
I2
sS'paper'
p903
I0
sS'through'
p904
I3
sS'committed'
p905
I0
sS'hell'
p906
I1
sS'its'
p907
I8
sS'actually'
p908
I3
sS'might'
p909
I3
sS'good'
p910
I5
sS'return'
p911
I0
sS'food'
p912
I0
sS'instructions'
p913
I0
sS'easily'
p914
I0
sS'always'
p915
I0
sS'stopped'
p916
I1
sS'found'
p917
I0
sS'referred'
p918
I2
sS'everyone'
p919
I0
sS'england'
p920
I1
sS'house'
p921
I3
sS'hard'
p922
I0
sS'reduce'
p923
I0
sS'idea'
p924
I0
sS'expect'
p925
I0
sS'really'
p926
I0
sS'try'
p927
I0
sS'since'
p928
I5
sS'research'
p929
I0
sS'horse'
p930
I1
sS'reason'
p931
I0
sS'members'
p932
I6
sS'put'
p933
I5
sS'teach'
p934
I0
sS'beginning'
p935
I1
sS'american'
p936
I1
sS'feed'
p937
I0
sS'major'
p938
I4
sS'mr'
p939
I1
sS'dont'
p940
I1
sS'feel'
p941
I0
sS'number'
p942
I1
sS'feet'
p943
I5
sS'done'
p944
I0
sS'miss'
p945
I0
sS'temperature'
p946
I0
sS'leading'
p947
I0
sS'least'
p948
I10
sS'statement'
p949
I1
sS'relationship'
p950
I3
sS'hotel'
p951
I1
sS'part'
p952
I0
sS'believe'
p953
I0
sS'king'
p954
I0
sS'kind'
p955
I0
sS'determined'
p956
I1
sS'contrary'
p957
I0
sS'supposed'
p958
I0
sS'toward'
p959
I0
sS'wasnt'
p960
I0
sS'substantial'
p961
I1
sS'orders'
p962
I1
sS'sell'
p963
I0
sS'lie'
p964
I1
sS'build'
p965
I0
sS'play'
p966
I1
sS'added'
p967
I2
sS'reach'
p968
I0
sS'most'
p969
I1
sS'plan'
p970
I0
sS'services'
p971
I1
sS'achievement'
p972
I0
sS'clear'
p973
I1
sS'sometimes'
p974
I0
sS'cover'
p975
I0
sS'particularly'
p976
I0
sS'relation'
p977
I0
sS'fine'
p978
I0
sS'find'
p979
I0
sS'justice'
p980
I0
sS'writer'
p981
I0
sS'failed'
p982
I0
sS'pretty'
p983
I0
sS'his'
p984
I21
sS'during'
p985
I8
sS'him'
p986
I5
sS'remove'
p987
I0
sS'wrote'
p988
I0
sS'set'
p989
I1
sS'art'
p990
I0
sS'see'
p991
I4
sS'individual'
p992
I1
sS'are'
p993
I56
sS'sea'
p994
I0
sS'close'
p995
I2
sS'pictures'
p996
I0
sS'various'
p997
I1
sS'probably'
p998
I0
sS'conditions'
p999
I2
sS'available'
p1000
I2
sS'attention'
p1001
I0
sS'opposition'
p1002
I0
sS'both'
p1003
I5
sS'last'
p1004
I10
sS'sensitive'
p1005
I0
sS'became'
p1006
I3
sS'whole'
p1007
I2
sS'liked'
p1008
I0
sS'supply'
p1009
I1
sS'community'
p1010
I0
sS'church'
p1011
I1
sS'raise'
p1012
I0
sS'create'
p1013
I0
sS'political'
p1014
I1
sS'due'
p1015
I0
sS'whom'
p1016
I1
sS'else'
p1017
I2
sS'whatever'
p1018
I0
sS'understand'
p1019
I1
sS'look'
p1020
I1
sS'talking'
p1021
I1
sS'straight'
p1022
I0
sS'technical'
p1023
I0
sS'while'
p1024
I3
sS'theres'
p1025
I1
sS'century'
p1026
I0
sS'itself'
p1027
I0
sS'anode'
p1028
I0
sS'ready'
p1029
I1
sS'government'
p1030
I1
sS'higher'
p1031
I0
sS'development'
p1032
I0
sS'used'
p1033
I6
sS'alert'
p1034
I0
sS'purpose'
p1035
I1
sS'analysis'
p1036
I1
sS'person'
p1037
I0
sS'edge'
p1038
I0
sS'organization'
p1039
I0
sS'spend'
p1040
I2
sS'questions'
p1041
I0
sS'cut'
p1042
I0
sS'also'
p1043
I4
sS'workers'
p1044
I1
sS'parents'
p1045
I0
sS'surprised'
p1046
I0
sS'march'
p1047
I1
sS'couple'
p1048
I1
sS'essential'
p1049
I1
sS'methods'
p1050
I3
sS'some'
p1051
I2
sS'back'
p1052
I2
sS'economic'
p1053
I0
sS'gradually'
p1054
I0
sS'decision'
p1055
I1
sS'per'
p1056
I0
sS'tends'
p1057
I0
sS'be'
p1058
I18
sS'run'
p1059
I2
sS'refused'
p1060
I0
sS'served'
p1061
I1
sS'relating'
p1062
I0
sS'by'
p1063
I30
sS'wouldnt'
p1064
I0
sS'range'
p1065
I1
sS'into'
p1066
I22
sS'within'
p1067
I2
sS'nothing'
p1068
I1
sS'appropriate'
p1069
I0
sS'question'
p1070
I2
sS'forward'
p1071
I0
sS'himself'
p1072
I2
sS'line'
p1073
I3
sS'directed'
p1074
I0
sS'up'
p1075
I8
sS'us'
p1076
I3
sS'similar'
p1077
I2
sS'called'
p1078
I1
sS'influence'
p1079
I0
sS'peace'
p1080
I0
sS'department'
p1081
I0
sS'nice'
p1082
I0
sS'draw'
p1083
I0
sS'problems'
p1084
I3
sS'prepared'
p1085
I0
sS'meaning'
p1086
I0
sS'required'
p1087
I0
sS'walked'
p1088
I0
sS'having'
p1089
I2
sS'once'
p1090
I4
sS'results'
p1091
I1
sS'go'
p1092
I0
sS'seemed'
p1093
I1
sS'young'
p1094
I2
sS'send'
p1095
I0
sS'women'
p1096
I2
sS'sent'
p1097
I1
sS'wished'
p1098
I0
sS'outside'
p1099
I0
sS'continues'
p1100
I0
sS'continued'
p1101
I2
sS'anxious'
p1102
I0
sS'business'
p1103
I0
sS'waiting'
p1104
I0
sS'experiment'
p1105
I0
sS'body'
p1106
I1
sS'led'
p1107
I0
sS'degree'
p1108
I0
sS'let'
p1109
I0
sS'others'
p1110
I3
sS'great'
p1111
I2
sS'receive'
p1112
I0
sS'claim'
p1113
I0
sS'win'
p1114
I0
sS'apt'
p1115
I0
sS'apply'
p1116
I1
sS'from'
p1117
I20
sS'remains'
p1118
I0
sS'hudson'
p1119
I1
sS'next'
p1120
I6
sS'few'
p1121
I1
sS'themselves'
p1122
I1
sS'started'
p1123
I1
sS'inclined'
p1124
I0
sS'train'
p1125
I0
sS'this'
p1126
I18
sS'challenge'
p1127
I0
sS'obvious'
p1128
I0
sS'of'
p1129
I216
sS'meet'
p1130
I0
sS'didnt'
p1131
I0
sS'control'
p1132
I0
sS'tax'
p1133
I0
sS'something'
p1134
I0
sS'sought'
p1135
I0
sS'sir'
p1136
I1
sS'united'
p1137
I1
sS'sit'
p1138
I0
sS'stock'
p1139
I1
sS'attend'
p1140
I0
sS'farm'
p1141
I2
sS'stop'
p1142
I0
sS'light'
p1143
I0
sS'allow'
p1144
I0
sS'move'
p1145
I0
sS'including'
p1146
I3
sS'write'
p1147
I0
sS'chosen'
p1148
I0
sS'labor'
p1149
I0
sS'willing'
p1150
I0
sS'choose'
p1151
I0
sS'greater'
p1152
I0
sS'practice'
p1153
I1
sS'hands'
p1154
I3
sS'front'
p1155
I1
sS'day'
p1156
I5
sS'sufficiently'
p1157
I0
sS'doing'
p1158
I0
sS'related'
p1159
I0
sS'society'
p1160
I2
sS'measure'
p1161
I0
sS'our'
p1162
I1
sS'special'
p1163
I1
sS'out'
p1164
I8
sS'cause'
p1165
I0
sS'red'
p1166
I1
sS'common'
p1167
I1
sS'southern'
p1168
I1
sS'york'
p1169
I1
sS'additional'
p1170
I1
sS'prepare'
p1171
I1
sS'could'
p1172
I5
sS'times'
p1173
I3
sS'south'
p1174
I2
sS'scene'
p1175
I0
sS'such'
p1176
I4
sS'reference'
p1177
I1
sS'unknown'
p1178
I0
sS'system'
p1179
I1
sS'their'
p1180
I9
sS'attack'
p1181
I0
sS'final'
p1182
I1
sS'herself'
p1183
I0
sS'bed'
p1184
I1
sS'have'
p1185
I16
sS'need'
p1186
I0
sS'apparently'
p1187
I1
sS'clearly'
p1188
I2
sS'able'
p1189
I1
sS'which'
p1190
I24
sS'subject'
p1191
I0
sS'who'
p1192
I15
sS'why'
p1193
I3
sS'deny'
p1194
I0
sS'face'
p1195
I0
sS'looked'
p1196
I0
sS'occasion'
p1197
I0
sS'fact'
p1198
I5
sS'bring'
p1199
I0
sS'fear'
p1200
I0
sS'principal'
p1201
I3
sS'promote'
p1202
I0
sS'should'
p1203
I2
sS'local'
p1204
I0
sS'hope'
p1205
I0
sS'meant'
p1206
I1
sS'handle'
p1207
I0
sS'listened'
p1208
I0
sS'beat'
p1209
I0
sS'familiar'
p1210
I0
sS'ones'
p1211
I1
sS'areas'
p1212
I3
sS'married'
p1213
I0
sS'she'
p1214
I6
sS'view'
p1215
I1
sS'europe'
p1216
I0
sS'closer'
p1217
I0
sS'attempting'
p1218
I0
sS'tend'
p1219
I0
sS'state'
p1220
I2
sS'ability'
p1221
I0
sS'importance'
p1222
I0
sS'job'
p1223
I2
sS'key'
p1224
I0
sS'group'
p1225
I0
sS'invited'
p1226
I1
sS'equal'
p1227
I0
sS'assure'
p1228
I0
sS'admit'
p1229
I0
sS'wall'
p1230
I0
sS'walk'
p1231
I0
sS'respect'
p1232
I1
sS'addition'
p1233
I2
sS'slowly'
p1234
I0
sS'treat'
p1235
I0
sS'poet'
p1236
I0
sS'am'
p1237
I0
sS'sufficient'
p1238
I0
sS'general'
p1239
I0
sS'present'
p1240
I0
sS'value'
p1241
I0
sS'will'
p1242
I4
sS'thus'
p1243
I0
sS'surface'
p1244
I0
sS'began'
p1245
I0
sS'member'
p1246
I0
sS'strange'
p1247
I1
sS'party'
p1248
I0
sS'difficult'
p1249
I0
sS'upon'
p1250
I4
sS'effect'
p1251
I0
sS'student'
p1252
I1
sS'frequently'
p1253
I0
sS'off'
p1254
I5
sS'center'
p1255
I0
sS'i'
p1256
I10
sS'well'
p1257
I2
sS'thought'
p1258
I0
sS'english'
p1259
I0
sS'position'
p1260
I0
sS'less'
p1261
I4
sS'obtain'
p1262
I0
sS'point'
p1263
I0
sS'realize'
p1264
I0
sS'add'
p1265
I1
sS'book'
p1266
I0
sS'ought'
p1267
I0
sS'know'
p1268
I2
sS'press'
p1269
I1
sS'immediately'
p1270
I0
sS'you'
p1271
I10
sS'necessary'
p1272
I0
sS'like'
p1273
I3
sS'success'
p1274
I0
sS'lose'
p1275
I0
sS'become'
p1276
I0
sS'works'
p1277
I3
sS'soft'
p1278
I0
sS'authority'
p1279
I0
sS'home'
p1280
I2
sS'lead'
p1281
I0
sS'avoid'
p1282
I0
sS'does'
p1283
I1
sS'about'
p1284
I9
sS'carried'
p1285
I1
sS'freedom'
p1286
I0
sS'persuaded'
p1287
I0
sS'own'
p1288
I1
sS'washington'
p1289
I0
sS'doesnt'
p1290
I0
sS'rushed'
p1291
I1
sS'transfer'
p1292
I0
sS'buy'
p1293
I2
sS'north'
p1294
I1
sS'funds'
p1295
I0
sS'but'
p1296
I17
sS'eat'
p1297
I0
sS'he'
p1298
I24
sS'made'
p1299
I10
sS'whether'
p1300
I0
sS'wish'
p1301
I1
sS'wife'
p1302
I3
sS'record'
p1303
I0
sS'limit'
p1304
I0
sS'monument'
p1305
I0
sS'problem'
p1306
I0
sS'recognize'
p1307
I1
sS'contribute'
p1308
I0
sS'life'
p1309
I3
sS'education'
p1310
I0
sS'happen'
p1311
I0
sS'compared'
p1312
I1
sS'other'
p1313
I10
sS'stay'
p1314
I0
sS'chance'
p1315
I0
sS'friends'
p1316
I0
ssS'county'
p1317
(dp1318
S'to'
p1319
I3
sS'his'
p1320
I1
sS'our'
p1321
I0
sS'for'
p1322
I0
sS'or'
p1323
I7
sS'from'
p1324
I2
sS'that'
p1325
I1
sS'with'
p1326
I0
sS'this'
p1327
I1
sS'of'
p1328
I7
sS'and'
p1329
I9
sS'is'
p1330
I0
sS'in'
p1331
I14
sg6
I3
sS'the'
p1332
I16
ssS'patience'
p1333
(dp1334
S'of'
p1335
I2
ssS'weather'
p1336
(dp1337
S'had'
p1338
I4
sS'to'
p1339
I2
sS'know'
p1340
I0
sS'they'
p1341
I0
sS'not'
p1342
I1
sS'be'
p1343
I1
sS'on'
p1344
I0
sS'of'
p1345
I14
sS'or'
p1346
I3
sS'question'
p1347
I0
sS'was'
p1348
I4
sS'he'
p1349
I2
sS'and'
p1350
I22
sS'is'
p1351
I1
sS'it'
p1352
I2
sS'as'
p1353
I4
sS'in'
p1354
I10
sg6
I4
sS'the'
p1355
I26
ssS'bare'
p1356
(dp1357
S'to'
p1358
I3
ssS'are'
p1359
(dp1360
S'likely'
p1361
I17
sS'even'
p1362
I17
sS'men'
p1363
I23
sS'here'
p1364
I30
sS'would'
p1365
I3
sS'therefore'
p1366
I13
sS'work'
p1367
I3
sS'my'
p1368
I13
sS'after'
p1369
I7
sS'types'
p1370
I11
sS'then'
p1371
I16
sS'them'
p1372
I20
sS'they'
p1373
I254
sS'each'
p1374
I15
sS'god'
p1375
I7
sS'given'
p1376
I19
sS'another'
p1377
I9
sS'needed'
p1378
I11
sS'said'
p1379
I9
sS'we'
p1380
I178
sS'never'
p1381
I8
sS'however'
p1382
I25
sS'country'
p1383
I4
sS'three'
p1384
I12
sS'much'
p1385
I13
sS'is'
p1386
I25
sS'in'
p1387
I358
sS'if'
p1388
I81
sS'things'
p1389
I19
sS'make'
p1390
I10
sS'several'
p1391
I10
sS'the'
p1392
I865
sS'left'
p1393
I9
sS'just'
p1394
I15
sS'facts'
p1395
I9
sS'had'
p1396
I2
sS'has'
p1397
I2
sS'right'
p1398
I13
sS'for'
p1399
I139
sS'people'
p1400
I38
sS'some'
p1401
I58
sS'born'
p1402
I10
sS'when'
p1403
I52
sS'time'
p1404
I7
sS'usually'
p1405
I11
sS'today'
p1406
I16
sS'values'
p1407
I13
sS'designed'
p1408
I10
sS'such'
p1409
I48
sS'data'
p1410
I19
sS'so'
p1411
I47
sS'course'
p1412
I17
sS'still'
p1413
I25
sS'how'
p1414
I20
sS'not'
p1415
I158
sS'now'
p1416
I52
sS'shown'
p1417
I10
sS'quite'
p1418
I14
sS'poems'
p1419
I14
sS'one'
p1420
I28
sS'open'
p1421
I7
sS'little'
p1422
I10
sS'that'
p1423
I227
sS'than'
p1424
I44
sS'were'
p1425
I4
sS'and'
p1426
I488
sS'any'
p1427
I14
sS'ideas'
p1428
I11
sS'sure'
p1429
I8
sS'paid'
p1430
I9
sS'only'
p1431
I44
sS'going'
p1432
I19
sS'over'
p1433
I11
sS'where'
p1434
I31
sS'enough'
p1435
I13
sS'many'
p1436
I71
sS'among'
p1437
I13
sS'capable'
p1438
I10
sS'those'
p1439
I51
sS'these'
p1440
I167
sS'different'
p1441
I19
sS'same'
p1442
I16
sS'no'
p1443
I45
sS'being'
p1444
I35
sS'business'
p1445
I10
sS'on'
p1446
I89
sS'of'
p1447
I452
sS'or'
p1448
I75
sS'your'
p1449
I12
sS'there'
p1450
I271
sS'trying'
p1451
I11
sS'with'
p1452
I88
sS'required'
p1453
I10
sS'af'
p1454
I26
sS'certain'
p1455
I14
sS'as'
p1456
I127
sS'at'
p1457
I62
sS'you'
p1458
I140
sS'important'
p1459
I25
sS'all'
p1460
I84
sS'children'
p1461
I10
sS'to'
p1462
I407
sS'very'
p1463
I23
sS'large'
p1464
I11
sS'what'
p1465
I56
sS'social'
p1466
I11
sS'two'
p1467
I47
sS'more'
p1468
I67
sS'plans'
p1469
I7
sg6
I155
sS'held'
p1470
I10
sS'its'
p1471
I19
sS'systems'
p1472
I10
sS'good'
p1473
I18
sS'always'
p1474
I11
sS'really'
p1475
I13
sS'since'
p1476
I10
sS'members'
p1477
I8
sS'number'
p1478
I16
sS'too'
p1479
I29
sS'costs'
p1480
I10
sS'most'
p1481
I47
sS'less'
p1482
I13
sS'his'
p1483
I33
sS'him'
p1484
I10
sS'common'
p1485
I9
sS'set'
p1486
I10
sS'both'
p1487
I25
sS'while'
p1488
I15
sS'ready'
p1489
I9
sS'used'
p1490
I44
sS'also'
p1491
I36
sS'like'
p1492
I12
sS'essential'
p1493
I9
sS'often'
p1494
I27
sS'was'
p1495
I1
sS'be'
p1496
I42
sS'by'
p1497
I124
sS'into'
p1498
I19
sS'within'
p1499
I13
sS'up'
p1500
I18
sS'problems'
p1501
I11
sS'far'
p1502
I15
sS'results'
p1503
I11
sS'concerned'
p1504
I16
sS'great'
p1505
I21
sS'involved'
p1506
I9
sS'products'
p1507
I8
sS'use'
p1508
I10
sS'from'
p1509
I54
sS'few'
p1510
I27
sS'themselves'
p1511
I18
sS'women'
p1512
I10
sS'this'
p1513
I48
sS'high'
p1514
I10
sS'lines'
p1515
I10
sS'own'
p1516
I5
sg628
I18
sS'day'
p1517
I4
sS'doing'
p1518
I12
sS'society'
p1519
I3
sS'our'
p1520
I19
sS'out'
p1521
I13
sS'their'
p1522
I60
sS'which'
p1523
I121
sS'unless'
p1524
I9
sS'who'
p1525
I82
sS'but'
p1526
I76
sS'words'
p1527
I11
sS'areas'
p1528
I12
sS'available'
p1529
I41
sS'national'
p1530
I5
sS'state'
p1531
I10
sS'an'
p1532
I26
sS'present'
p1533
I8
sS'will'
p1534
I6
sS'almost'
p1535
I11
sS'well'
p1536
I17
sS'sources'
p1537
I10
sS'other'
p1538
I52
sS'know'
p1539
I11
sS'necessary'
p1540
I11
sS'because'
p1541
I30
sS'although'
p1542
I11
sS'about'
p1543
I29
sS'world'
p1544
I8
sS'made'
p1545
I29
ssS'sight'
p1546
(dp1547
S'out'
p1548
I10
sS'of'
p1549
I31
sS'was'
p1550
I8
sS'and'
p1551
I12
sS'in'
p1552
I9
sg6
I9
ssS'seen'
p1553
(dp1554
S'to'
p1555
I24
sS'ever'
p1556
I20
sS'never'
p1557
I14
sS'from'
p1558
I9
sS'before'
p1559
I8
sS'they'
p1560
I17
sS'that'
p1561
I24
sS'and'
p1562
I26
sS'have'
p1563
I39
sS'him'
p1564
I8
sS'we'
p1565
I16
sS'can'
p1566
I15
sS'it'
p1567
I18
sS'in'
p1568
I35
sg1256
I23
sS'had'
p1569
I63
sS'has'
p1570
I11
sS'be'
p1571
I44
sS'on'
p1572
I10
sS'he'
p1573
I22
sS'as'
p1574
I30
ssS'our'
p1575
(dp1576
g1361
I0
sS'even'
p1577
I6
sS'men'
p1578
I5
sS'here'
p1579
I3
sS'would'
p1580
I16
sS'therefore'
p1581
I1
sS'work'
p1582
I7
sS'my'
p1583
I1
sS'far'
p1584
I5
sS'after'
p1585
I4
sg1370
I0
sS'over'
p1586
I2
sS'then'
p1587
I2
sS'them'
p1588
I7
sS'they'
p1589
I3
sS'each'
p1590
I1
sS'large'
p1591
I3
sS'god'
p1592
I4
sS'little'
p1593
I2
sS'another'
p1594
I2
sg1378
I0
sS'too'
p1595
I3
sS'said'
p1596
I4
sS'we'
p1597
I47
sS'never'
p1598
I2
sg1382
I0
sS'country'
p1599
I9
sS'three'
p1600
I1
sS'has'
p1601
I8
sS'is'
p1602
I62
sS'in'
p1603
I137
sg1389
I0
sS'make'
p1604
I3
sg1391
I0
sS'on'
p1605
I42
sS'the'
p1606
I163
sS'left'
p1607
I1
sS'just'
p1608
I1
sS'facts'
p1609
I1
sS'had'
p1610
I9
sS'right'
p1611
I3
sS'people'
p1612
I7
sS'born'
p1613
I1
sS'for'
p1614
I46
sS'was'
p1615
I11
sS'no'
p1616
I1
sS'usually'
p1617
I1
sS'today'
p1618
I4
sg1407
I0
sg628
I1
sS'designed'
p1619
I2
sg1409
I0
sS'data'
p1620
I2
sS'so'
p1621
I7
sS'course'
p1622
I2
sS'still'
p1623
I1
sS'how'
p1624
I3
sS'not'
p1625
I18
sS'now'
p1626
I4
sg1417
I0
sg1418
I0
sg1419
I0
sS'one'
p1627
I12
sS'open'
p1628
I3
sS'given'
p1629
I1
sS'national'
p1630
I13
sS'that'
p1631
I47
sS'than'
p1632
I7
sS'were'
p1633
I14
sS'and'
p1634
I117
sS'any'
p1635
I3
sS'ideas'
p1636
I2
sS'sure'
p1637
I2
sS'paid'
p1638
I1
sS'only'
p1639
I9
sg1432
I0
sS'held'
p1640
I1
sS'where'
p1641
I4
sS'many'
p1642
I5
sS'among'
p1643
I2
sg1438
I0
sS'those'
p1644
I3
sS'these'
p1645
I4
sS'good'
p1646
I2
sS'different'
p1647
I2
sS'same'
p1648
I1
sg1480
I0
sS'being'
p1649
I2
sS'world'
p1650
I3
sS'business'
p1651
I2
sS'if'
p1652
I11
sS'of'
p1653
I230
sS'or'
p1654
I12
sg1449
I0
sS'there'
p1655
I3
sS'enough'
p1656
I2
sg1451
I0
sS'with'
p1657
I35
sg1454
I0
sS'certain'
p1658
I1
sS'an'
p1659
I8
sS'as'
p1660
I29
sS'at'
p1661
I20
sS'you'
p1662
I4
sS'time'
p1663
I16
sS'important'
p1664
I1
sS'all'
p1665
I20
sS'children'
p1666
I5
sS'to'
p1667
I150
sS'very'
p1668
I9
sS'what'
p1669
I7
sS'social'
p1670
I3
sS'members'
p1671
I4
sS'two'
p1672
I3
sS'more'
p1673
I8
sS'plans'
p1674
I3
sg6
I20
sS'its'
p1675
I3
sg1472
I0
sS'always'
p1676
I2
sS'really'
p1677
I2
sS'since'
p1678
I5
sS'number'
p1679
I1
sS'also'
p1680
I7
sS'most'
p1681
I14
sS'his'
p1682
I3
sS'him'
p1683
I3
sS'common'
p1684
I2
sS'set'
p1685
I1
sS'available'
p1686
I3
sS'both'
p1687
I2
sS'while'
p1688
I1
sS'ready'
p1689
I1
sS'used'
p1690
I2
sS'know'
p1691
I1
sS'essential'
p1692
I1
sS'often'
p1693
I1
sS'some'
p1694
I5
sS'be'
p1695
I19
sS'use'
p1696
I4
sS'by'
p1697
I24
sS'into'
p1698
I7
sS'within'
p1699
I2
sS'up'
p1700
I5
sS'problems'
p1701
I4
sS'required'
p1702
I1
sS'results'
p1703
I1
sg1504
I0
sS'great'
p1704
I8
sS'involved'
p1705
I1
sS'products'
p1706
I2
sS'from'
p1707
I19
sS'few'
p1708
I3
sS'themselves'
p1709
I1
sS'women'
p1710
I1
sS'this'
p1711
I20
sS'when'
p1712
I7
sg1514
I0
sS'lines'
p1713
I1
sS'doing'
p1714
I2
sS'society'
p1715
I7
sS'our'
p1716
I10
sS'out'
p1717
I4
sS'their'
p1718
I3
sS'which'
p1719
I17
sS'unless'
p1720
I1
sS'who'
p1721
I6
sS'words'
p1722
I1
sS'areas'
p1723
I1
sS'state'
p1724
I3
sS'present'
p1725
I14
sS'will'
p1726
I16
sg1535
I0
sS'well'
p1727
I6
sS'less'
p1728
I2
sg1537
I0
sS'day'
p1729
I12
sS'necessary'
p1730
I1
sS'like'
p1731
I2
sS'because'
p1732
I7
sS'although'
p1733
I3
sS'about'
p1734
I11
sS'own'
p1735
I31
sS'much'
p1736
I2
sS'but'
p1737
I16
sS'made'
p1738
I7
sS'other'
p1739
I4
ssS'its'
p1740
(dp1741
S'under'
p1742
I14
sS'new'
p1743
I19
sS'would'
p1744
I14
sS'must'
p1745
I10
sS'over'
p1746
I12
sS'each'
p1747
I12
sS'even'
p1748
I12
sS'life'
p1749
I10
sS'has'
p1750
I40
sS'is'
p1751
I71
sS'it'
p1752
I64
sS'in'
p1753
I214
sS'if'
p1754
I10
sS'the'
p1755
I263
sS'had'
p1756
I24
sS'way'
p1757
I22
sS'was'
p1758
I50
sS'head'
p1759
I13
sS'form'
p1760
I12
sS'when'
p1761
I14
sS'for'
p1762
I82
sS'can'
p1763
I15
sS'may'
p1764
I15
sS'so'
p1765
I19
sS'still'
p1766
I10
sS'not'
p1767
I35
sS'now'
p1768
I14
sS'name'
p1769
I15
sS'place'
p1770
I12
sS'first'
p1771
I13
sS'one'
p1772
I25
sS'that'
p1773
I65
sS'than'
p1774
I17
sS'and'
p1775
I287
sS'only'
p1776
I22
sS'power'
p1777
I10
sS'on'
p1778
I82
sS'of'
p1779
I279
sS'with'
p1780
I106
sS'an'
p1781
I17
sS'as'
p1782
I51
sS'at'
p1783
I37
sS'all'
p1784
I32
sS'to'
p1785
I211
sS'what'
p1786
I10
sS'more'
p1787
I10
sS'states'
p1788
I11
sg6
I77
sS'through'
p1789
I13
sS'its'
p1790
I38
sS'members'
p1791
I15
sS'most'
p1792
I17
sS'his'
p1793
I10
sS'during'
p1794
I10
sS'are'
p1795
I11
sS'church'
p1796
I13
sS'also'
p1797
I14
sS'be'
p1798
I23
sS'by'
p1799
I60
sS'into'
p1800
I17
sS'up'
p1801
I10
sS'from'
p1802
I47
sS'this'
p1803
I23
sS'or'
p1804
I27
sS'out'
p1805
I21
sS'have'
p1806
I21
sS'which'
p1807
I25
sS'present'
p1808
I11
sS'will'
p1809
I20
sg1256
I16
sS'lost'
p1810
I14
sS'because'
p1811
I19
sS'about'
p1812
I12
sS'own'
p1813
I53
sS'but'
p1814
I47
sS'he'
p1815
I15
ssS'to'
p1816
(dp1817
S'four'
p1818
I19
sg642
I25
sS'second'
p1819
I19
sS'available'
p1820
I27
sg305
I14
sS'here'
p1821
I55
sg314
I10
sg318
I14
sg320
I36
sg325
I16
sS'therefore'
p1822
I17
sg329
I12
sg330
I33
sS'example'
p1823
I16
sg339
I146
sS'how'
p1824
I101
sS'types'
p1825
I3
sg354
I11
sg363
I18
sS'easier'
p1826
I17
sS'effects'
p1827
I9
sg678
I19
sg384
I14
sg394
I25
sg397
I26
sg400
I15
sS'nations'
p1828
I9
sg407
I10
sg1037
I22
sg423
I24
sg425
I26
sg439
I15
sg696
I11
sg442
I17
sS'best'
p1829
I43
sS'never'
p1830
I61
sg453
I37
sS'country'
p1831
I23
sg458
I11
sg460
I42
sS'union'
p1832
I10
sS'life'
p1833
I67
sg469
I17
sS'things'
p1834
I49
sS'had'
p1835
I519
sS'has'
p1836
I180
sS'possible'
p1837
I61
sg512
I30
sS'steps'
p1838
I21
sS'right'
p1839
I88
sS'people'
p1840
I89
sg508
I36
sS'sure'
p1841
I42
sS'for'
p1842
I533
sg533
I28
sg539
I11
sS'offer'
p1843
I15
sS'inside'
p1844
I15
sg770
I19
sg718
I12
sS'time'
p1845
I150
sg566
I13
sg585
I56
sg586
I23
sg591
I10
sS'alone'
p1846
I14
sS'along'
p1847
I18
sg606
I22
sS'working'
p1848
I12
sS'values'
p1849
I10
sS'allowed'
p1850
I27
sS'date'
p1851
I17
sS'such'
p1852
I61
sS'data'
p1853
I13
sg637
I14
sg638
I14
sS'so'
p1854
I135
sg644
I22
sg646
I10
sg650
I13
sS'million'
p1855
I13
sS'quite'
p1856
I14
sS'training'
p1857
I13
sS'one'
p1858
I261
sg681
I46
sg682
I25
sg685
I17
sg686
I18
sg697
I15
sg700
I76
sS'say'
p1859
I129
sS'note'
p1860
I20
sS'take'
p1861
I138
sg706
I12
sg711
I15
sS'federal'
p1862
I14
sS'going'
p1863
I170
sS'where'
p1864
I63
sS'many'
p1865
I63
sg747
I23
sg748
I31
sg749
I12
sg758
I13
sS'costs'
p1866
I13
sS'being'
p1867
I46
sg775
I17
sS'schools'
p1868
I8
sS'around'
p1869
I42
sS'world'
p1870
I46
sg793
I19
sS'power'
p1871
I32
sS'industry'
p1872
I14
sg802
I27
sg380
I26
sS'parties'
p1873
I8
sS'her'
p1874
I377
sS'complete'
p1875
I18
sS'with'
p1876
I413
sg817
I15
sg818
I25
sS'af'
p1877
I49
sg820
I22
sg1237
I25
sS'an'
p1878
I310
sS'as'
p1879
I395
sS'at'
p1880
I235
sg831
I13
sS'having'
p1881
I16
sS'consider'
p1882
I22
sg839
I16
sg847
I35
sS'large'
p1883
I31
sS'small'
p1884
I44
sS'past'
p1885
I15
sS'pass'
p1886
I21
sg437
I11
sg863
I16
sS'full'
p1887
I22
sg869
I17
sg870
I25
sg490
I17
sS'action'
p1888
I24
sS'more'
p1889
I183
sS'door'
p1890
I42
sS'company'
p1891
I14
sS'sent'
p1892
I43
sg887
I36
sg889
I14
sS'states'
p1893
I27
sg892
I31
sS'information'
p1894
I22
sg896
I15
sg903
I9
sS'its'
p1895
I162
sg915
I46
sg917
I59
sS'england'
p1896
I12
sg923
I17
sg926
I23
sg927
I60
sg929
I12
sS'major'
p1897
I12
sS'girls'
p1898
I9
sS'number'
p1899
I25
sS'relationship'
p1900
I11
sS'determined'
p1901
I22
sg963
I14
sS'also'
p1902
I51
sS'play'
p1903
I23
sg970
I33
sg974
I12
sg975
I13
sg982
I21
sS'set'
p1904
I49
sS'see'
p1905
I167
sg994
I11
sg1216
I16
sS'last'
p1906
I29
sS'whole'
p1907
I16
sg1010
I13
sS'church'
p1908
I30
sg1112
I12
sS'real'
p1909
I24
sg1034
I10
sS'listening'
p1910
I12
sg341
I11
sg1045
I13
sg1046
I10
sS'couple'
p1911
I14
sS'continue'
p1912
I44
sS'methods'
p1913
I14
sS'be'
p1914
I1473
sg1062
I11
sS'by'
p1915
I206
sg617
I46
sS'into'
p1916
I96
sg1069
I14
sS'line'
p1917
I17
sS'up'
p1918
I257
sS'us'
p1919
I106
sg1079
I11
sg1088
I26
sS'came'
p1920
I108
sS'results'
p1921
I8
sS'seemed'
p1922
I119
sS'young'
p1923
I33
sg1095
I18
sg1100
I12
sS'continued'
p1924
I30
sg1102
I10
sg1107
I31
sg1109
I41
sS'great'
p1925
I43
sg1023
I10
sS'across'
p1926
I28
sS'next'
p1927
I60
sS'this'
p1928
I393
sg1127
I12
sg1144
I30
sg1145
I44
sg1148
I9
sg1264
I18
sg1157
I16
sS'stock'
p1929
I12
sg1158
I9
sS'society'
p1930
I14
sS'could'
p1931
I70
sg1175
I10
sS'start'
p1932
I26
sS'system'
p1933
I25
sg811
I11
sS'clearly'
p1934
I9
sg1195
I31
sS'fact'
p1935
I20
sg1199
I53
sS'principal'
p1936
I7
sg1202
I10
sS'should'
p1937
I75
sg1205
I21
sS'meant'
p1938
I25
sg1207
I15
sg1208
I10
sg1210
I7
sS'invited'
p1939
I11
sS'upon'
p1940
I36
sS'off'
p1941
I71
sS'government'
p1942
I27
sg1276
I52
sg1282
I19
sS'does'
p1943
I30
sg1305
I10
sg1308
I23
sg1315
I21
sS'told'
p1944
I38
sS'study'
p1945
I27
sS'word'
p1946
I12
sS'work'
p1947
I96
sS'provide'
p1948
I51
sS'after'
p1949
I31
sS'lay'
p1950
I14
sS'law'
p1951
I17
sS'order'
p1952
I86
sg360
I22
sg361
I10
sS'then'
p1953
I81
sS'them'
p1954
I243
sg372
I24
sS'they'
p1955
I284
sS'reasonable'
p1956
I11
sS'standard'
p1957
I10
sS'another'
p1958
I64
sg399
I15
sg911
I45
sg416
I29
sg417
I18
sS'forces'
p1959
I14
sS'what'
p1960
I188
sg424
I10
sS'just'
p1961
I69
sS'do'
p1962
I307
sg438
I13
sg441
I11
sS'techniques'
p1963
I9
sS'away'
p1964
I39
sg448
I29
sS'we'
p1965
I208
sg456
I12
sg463
I39
sg471
I30
sS'east'
p1966
I12
sg473
I10
sg474
I10
sg476
I11
sg477
I14
sS'property'
p1967
I10
sS'hand'
p1968
I36
sS'the'
p1969
I4962
sg499
I8
sg506
I11
sg507
I15
sS'night'
p1970
I14
sg577
I13
sg525
I10
sg530
I11
sg680
I16
sg535
I122
sS'was'
p1971
I813
sS'war'
p1972
I22
sS'true'
p1973
I19
sg551
I16
sg554
I13
sg558
I12
sS'together'
p1974
I13
sS'dance'
p1975
I12
sS'battle'
p1976
I10
sg572
I26
sg573
I10
sg578
I11
sg580
I13
sg589
I11
sS'cost'
p1977
I18
sg593
I37
sg599
I25
sS'change'
p1978
I28
sg604
I14
sS'usually'
p1979
I13
sg609
I14
sg611
I39
sg613
I12
sg614
I10
sS'car'
p1980
I18
sS'can'
p1981
I109
sS'social'
p1982
I18
sS'heart'
p1983
I15
sg626
I11
sS'means'
p1984
I20
sg1147
I42
sS'southern'
p1985
I9
sg631
I19
sS'remember'
p1986
I31
sg645
I43
sS'not'
p1987
I453
sS'now'
p1988
I83
sg654
I9
sg657
I11
sS'year'
p1989
I14
sg1311
I23
sg663
I9
sg664
I14
sg669
I21
sS'directly'
p1990
I25
sg679
I10
sS'friend'
p1991
I12
sS'that'
p1992
I717
sS'than'
p1993
I73
sg705
I16
sg707
I32
sS'price'
p1994
I9
sg713
I13
sg1218
I10
sS'mrs'
p1995
I27
sS'ground'
p1996
I10
sS'only'
p1997
I142
sS'cannot'
p1998
I11
sS'husband'
p1999
I16
sg731
I10
sg733
I15
sS'between'
p2000
I21
sS'comes'
p2001
I22
sg745
I12
sS'proved'
p2002
I13
sS'actually'
p2003
I7
sS'these'
p2004
I122
sg762
I10
sg763
I34
sg777
I14
sS'death'
p2005
I31
sg913
I12
sS'read'
p2006
I35
sg792
I12
sg1103
I34
sg796
I9
sS'central'
p2007
I13
sS'referred'
p2008
I29
sg806
I99
sS'prepare'
p2009
I11
sS'area'
p2010
I19
sg810
I9
sg561
I11
sS'trying'
p2011
I94
sg925
I40
sS'describe'
p2012
I18
sS'moved'
p2013
I28
sS'you'
p2014
I393
sS'month'
p2015
I9
sg842
I11
sS'very'
p2016
I50
sg849
I11
sg1241
I15
sS'ahead'
p2017
I11
sg872
I16
sg874
I34
sS'taken'
p2018
I28
sg888
I16
sg661
I85
sg6
I1697
sS'help'
p2019
I71
sS'held'
p2020
I14
sg905
I10
sS'hell'
p2021
I10
sg912
I12
sg790
I11
sS'stopped'
p2022
I9
sS'since'
p2023
I20
sg931
I32
sS'put'
p2024
I75
sS'american'
p2025
I35
sg587
I15
sg945
I16
sS'horse'
p2026
I10
sS'behind'
p2027
I8
sg959
I13
sg960
I13
sS'substantial'
p2028
I10
sS'clear'
p2029
I26
sg980
I9
sS'less'
p2030
I23
sg983
I10
sS'during'
p2031
I14
sS'close'
p2032
I60
sg996
I8
sg998
I16
sS'conditions'
p2033
I12
sS'both'
p2034
I53
sg1005
I11
sg1008
I15
sg1018
I10
sS'else'
p2035
I15
sS'look'
p2036
I85
sS'while'
p2037
I28
sg1267
I42
sS'ready'
p2038
I46
sg359
I13
sS'used'
p2039
I124
sS'lie'
p2040
I10
sS'march'
p2041
I9
sg1274
I13
sS'some'
p2042
I121
sS'run'
p2043
I37
sS'within'
p2044
I18
sS'himself'
p2045
I91
sS'similar'
p2046
I32
sg1081
I21
sg1083
I12
sS'william'
p2047
I10
sg1087
I36
sg1092
I181
sg1105
I10
sg1114
I12
sg1118
I10
sS'hudson'
p2048
I12
sS'started'
p2049
I29
sg1130
I42
sg1132
I26
sg1135
I16
sS'farm'
p2050
I12
sS'least'
p2051
I31
sS'including'
p2052
I10
sS'hands'
p2053
I9
sS'front'
p2054
I15
sg1161
I18
sS'special'
p2055
I16
sg1165
I25
sS'completely'
p2056
I13
sS'times'
p2057
I20
sg1181
I14
sS'exactly'
p2058
I11
sg1183
I21
sS'bed'
p2059
I16
sg1186
I62
sS'able'
p2060
I116
sg323
I14
sS'she'
p2061
I234
sS'wish'
p2062
I25
sg1219
I30
sS'state'
p2063
I56
sg1222
I13
sg1224
I15
sg1306
I38
sg1229
I13
sS'addition'
p2064
I42
sg1234
I13
sg1235
I10
sS'recognize'
p2065
I14
sg1236
I10
sg1244
I13
sS'strange'
p2066
I10
sg1248
I16
sg1251
I22
sS'compared'
p2067
I17
sg1253
I9
sg1256
I433
sS'well'
p2068
I56
sg1270
I12
sg1272
I49
sS'home'
p2069
I47
sg1286
I18
sg1289
I14
sS'additional'
p2070
I17
sS'north'
p2071
I18
sg1297
I17
sS'he'
p2072
I757
sg1287
I11
sg1310
I12
sg1314
I27
sg1316
I13
sS'whose'
p2073
I10
sg297
I12
sg298
I22
sg405
I60
sS'even'
p2074
I75
sS'new'
p2075
I108
sg308
I25
sS'dry'
p2076
I8
sg316
I13
sS'permit'
p2077
I19
sS'arms'
p2078
I8
sg536
I39
sg327
I16
sg328
I56
sS'room'
p2079
I52
sg338
I95
sg347
I35
sS'president'
p2080
I21
sg353
I53
sg695
I11
sS'maintain'
p2081
I21
sg357
I19
sS'personal'
p2082
I17
sS'better'
p2083
I39
sS'weeks'
p2084
I10
sS'went'
p2085
I120
sS'side'
p2086
I36
sS'principles'
p2087
I10
sS'taught'
p2088
I10
sg403
I12
sg404
I12
sg408
I18
sg411
I14
sg412
I29
sS'seen'
p2089
I19
sg414
I87
sS'seek'
p2090
I28
sg426
I10
sg428
I16
sg431
I16
sg306
I16
sg1142
I37
sS'reference'
p2091
I18
sS'decided'
p2092
I40
sg1191
I31
sS'said'
p2093
I99
sS'against'
p2094
I30
sg459
I11
sS'appeared'
p2095
I20
sS'interest'
p2096
I31
sS'basic'
p2097
I14
sg475
I13
sS'is'
p2098
I970
sS'it'
p2099
I802
sS'cant'
p2100
I9
sS'im'
p2101
I49
sS'in'
p2102
I1017
sg484
I24
sS'if'
p2103
I139
sS'make'
p2104
I208
sg489
I16
sg493
I33
sg494
I12
sg495
I18
sg497
I15
sS'left'
p2105
I38
sg502
I17
sS'human'
p2106
I13
sS'yet'
p2107
I25
sg746
I16
sg517
I18
sS'down'
p2108
I126
sS'form'
p2109
I35
sg544
I17
sg549
I14
sg1053
I13
sS'drive'
p2110
I16
sg552
I12
sg557
I10
sg560
I26
sg563
I14
sg370
I8
sg568
I18
sg575
I19
sg576
I16
sS'me'
p2111
I255
sS'governments'
p2112
I10
sS'did'
p2113
I63
sS'wait'
p2114
I10
sg602
I9
sg607
I10
sg610
I44
sg615
I40
sg616
I10
sg1064
I13
sg621
I15
sg1113
I12
sS'may'
p2115
I107
sS'designed'
p2116
I34
sg635
I15
sS'man'
p2117
I101
sg643
I48
sg647
I14
sg648
I14
sS'girl'
p2118
I14
sS'living'
p2119
I13
sg343
I29
sg673
I64
sS'first'
p2120
I88
sg677
I23
sS'little'
p2121
I65
sg684
I19
sS'eyes'
p2122
I20
sS'10'
p2123
I12
sS'were'
p2124
I284
sg709
I16
sg852
I20
sS'paid'
p2125
I23
sS'especially'
p2126
I11
sS'show'
p2127
I58
sS'get'
p2128
I196
sS'nearly'
p2129
I9
sS'yield'
p2130
I10
sS'enough'
p2131
I129
sg735
I12
sg740
I78
sg743
I21
sg750
I10
sS'those'
p2132
I82
sg845
I16
sg764
I10
sS'pay'
p2133
I42
sS'same'
p2134
I37
sg774
I27
sg789
I13
sS'served'
p2135
I11
sg795
I12
sS'island'
p2136
I8
sg1086
I15
sS'road'
p2137
I19
sg1239
I34
sg826
I14
sg827
I11
sg828
I39
sg829
I17
sS'students'
p2138
I19
sS'important'
p2139
I40
sS'once'
p2140
I34
sg835
I12
sg837
I10
sS'fall'
p2141
I11
sS'difference'
p2142
I11
sS'further'
p2143
I19
sS'stood'
p2144
I8
sg861
I10
sg864
I11
sS'two'
p2145
I59
sS'particular'
p2146
I17
sg883
I19
sS'hour'
p2147
I14
sg622
I10
sg894
I23
sS'coming'
p2148
I11
sS'response'
p2149
I15
sS'through'
p2150
I56
sS'good'
p2151
I64
sg914
I8
sg919
I12
sS'house'
p2152
I49
sg922
I49
sg924
I15
sg768
I13
sS'beginning'
p2153
I32
sS'dont'
p2154
I45
sg944
I22
sS'statement'
p2155
I10
sg952
I23
sg953
I21
sg957
I21
sg958
I31
sS'orders'
p2156
I11
sg965
I28
sS'most'
p2157
I67
sS'services'
p2158
I10
sg976
I12
sg977
I28
sg978
I8
sg979
I103
sg987
I15
sS'individual'
p2159
I15
sg1108
I21
sg1263
I45
sg1012
I13
sg1013
I20
sS'understand'
p2160
I21
sg1026
I9
sg1027
I25
sg1028
I10
sg1304
I15
sg1032
I19
sS'purpose'
p2161
I12
sg1039
I10
sS'spend'
p2162
I14
sg1042
I26
sg420
I10
sg532
I31
sS'back'
p2163
I179
sS'decision'
p2164
I13
sg1056
I24
sg1071
I22
sg1074
I14
sg1085
I26
sS'body'
p2165
I15
sS'others'
p2166
I25
sS'later'
p2167
I22
sS'themselves'
p2168
I31
sg1125
I12
sg1128
I8
sg1131
I52
sg1149
I14
sg1150
I35
sg1152
I13
sS'day'
p2169
I44
sS'red'
p2170
I10
sS'south'
p2171
I15
sS'have'
p2172
I542
sS'apparently'
p2173
I13
sS'unless'
p2174
I13
sg1197
I10
sg1209
I13
sS'areas'
p2175
I21
sS'national'
p2176
I19
sg757
I10
sg1227
I16
sg1228
I13
sS'practice'
p2177
I10
sg1255
I12
sg1258
I39
sg1260
I28
sS'add'
p2178
I31
sS'like'
p2179
I124
sS'works'
p2180
I7
sg1278
I7
sg1279
I15
sS'about'
p2181
I162
sg1290
I11
sS'rushed'
p2182
I10
sS'buy'
p2183
I24
sS'but'
p2184
I231
sg289
I17
sg291
I11
sS'under'
p2185
I24
sg295
I23
sg296
I33
sS'school'
p2186
I38
sS'leaders'
p2187
I10
sg300
I20
sg302
I17
sg304
I12
sg478
I13
sg479
I11
sS'changes'
p2188
I9
sS'would'
p2189
I252
sS'must'
p2190
I66
sS'join'
p2191
I24
sS'mr'
p2192
I37
sS'my'
p2193
I134
sS'keep'
p2194
I83
sg342
I37
sg346
I9
sS'parallel'
p2195
I11
sS'over'
p2196
I89
sS'writing'
p2197
I9
sS'each'
p2198
I71
sg1225
I19
sg383
I22
sS'got'
p2199
I67
sS'free'
p2200
I33
sS'wanted'
p2201
I99
sS'already'
p2202
I19
sS'top'
p2203
I16
sg398
I77
sg401
I28
sS'took'
p2204
I30
sS'final'
p2205
I9
sS'bridge'
p2206
I10
sS'ran'
p2207
I18
sS'talking'
p2208
I15
sS'1960'
p2209
I10
sg429
I17
sg434
I18
sg435
I24
sS'countries'
p2210
I13
sS'public'
p2211
I37
sg446
I12
sg449
I32
sg452
I31
sg454
I12
sS'trust'
p2212
I9
sS'been'
p2213
I214
sS'expected'
p2214
I52
sg470
I11
sg356
I10
sS'several'
p2215
I26
sg496
I17
sg430
I10
sS'gave'
p2216
I35
sg513
I13
sg519
I17
sg875
I16
sg522
I20
sg526
I18
sS'dinner'
p2217
I13
sS'efforts'
p2218
I22
sS'class'
p2219
I14
sg540
I21
sg543
I10
sg545
I10
sg553
I13
sS'no'
p2220
I169
sS'when'
p2221
I116
sg559
I9
sS'longer'
p2222
I24
sg570
I12
sg321
I10
sg579
I13
sg582
I17
sg584
I11
sS'says'
p2223
I10
sS'remain'
p2224
I20
sg594
I14
sS'water'
p2225
I32
sg612
I14
sg1204
I18
sS'numbers'
p2226
I7
sS'dropped'
p2227
I9
sg628
I30
sS'happened'
p2228
I24
sS'term'
p2229
I10
sS'name'
p2230
I16
sg658
I18
sg769
I17
sg666
I15
sg671
I51
sS'place'
p2231
I59
sg387
I50
sS'white'
p2232
I13
sg690
I19
sg692
I10
sg694
I12
sS'and'
p2233
I1581
sS'any'
p2234
I139
sg546
I27
sS'written'
p2235
I14
sg730
I21
sg1099
I10
sS'come'
p2236
I134
sg738
I10
sS'duty'
p2237
I10
sS'period'
p2238
I13
sg751
I12
sS'spirit'
p2239
I13
sS'case'
p2240
I12
sg755
I21
sg760
I15
sg767
I13
sS'without'
p2241
I33
sg772
I12
sg776
I19
sg778
I10
sS'rose'
p2242
I14
sg781
I100
sS'except'
p2243
I12
sg787
I11
sg567
I12
sg791
I21
sS'respect'
p2244
I33
sS'on'
p2245
I342
sS'of'
p2246
I1345
sS'stand'
p2247
I25
sg804
I29
sg814
I28
sg830
I10
sg1238
I21
sS'separate'
p2248
I11
sS'wife'
p2249
I25
sS'all'
p2250
I195
sg838
I9
sg841
I17
sg843
I10
sg844
I27
sg1240
I34
sg846
I15
sg856
I10
sg866
I18
sS'members'
p2251
I20
sS'suddenly'
p2252
I14
sS'known'
p2253
I37
sg882
I15
sg895
I16
sS'rather'
p2254
I16
sS'short'
p2255
I15
sg1245
I108
sg901
I12
sS'might'
p2256
I41
sg934
I12
sg937
I14
sg941
I29
sS'feet'
p2257
I37
sg946
I16
sg947
I10
sS'hotel'
p2258
I12
sg954
I11
sg955
I17
sS'added'
p2259
I34
sg968
I27
sS'nothing'
p2260
I57
sg972
I10
sS'his'
p2261
I639
sS'him'
p2262
I432
sg595
I11
sg988
I18
sg990
I13
sS'are'
p2263
I383
sS'various'
p2264
I14
sg1001
I39
sg1002
I10
sS'became'
p2265
I15
sS'political'
p2266
I16
sg1015
I51
sS'whom'
p2267
I14
sS'theres'
p2268
I10
sg1031
I13
sg590
I12
sS'moving'
p2269
I9
sS'analysis'
p2270
I10
sg1038
I14
sS'press'
p2271
I12
sg1041
I14
sS'workers'
p2272
I11
sS'essential'
p2273
I16
sg1054
I12
sg1057
I23
sg1275
I17
sg1060
I30
sS'range'
p2274
I15
sS'question'
p2275
I29
sS'called'
p2276
I29
sg1080
I19
sg1082
I9
sS'problems'
p2277
I20
sg884
I21
sg1098
I14
sg1104
I16
sg981
I12
sg1115
I10
sS'apply'
p2278
I26
sS'use'
p2279
I79
sS'from'
p2280
I367
sS'few'
p2281
I25
sg1124
I14
sS'women'
p2282
I15
sg1133
I15
sg1134
I76
sS'sir'
p2283
I10
sS'united'
p2284
I23
sg1138
I13
sg1140
I15
sg1143
I20
sg1151
I18
sg1159
I39
sS'our'
p2285
I102
sS'out'
p2286
I229
sS'common'
p2287
I17
sS'york'
p2288
I21
sg1022
I14
sg1178
I11
sS'their'
p2289
I292
sS'which'
p2290
I235
sS'who'
p2291
I164
sS'why'
p2292
I21
sg1194
I13
sg1196
I17
sg1200
I11
sS'ones'
p2293
I14
sg1213
I13
sS'view'
p2294
I12
sg1217
I20
sg1221
I31
sS'job'
p2295
I20
sg1230
I14
sg1231
I23
sS'table'
p2296
I11
sS'will'
p2297
I162
sS'supply'
p2298
I18
sg1243
I14
sg1246
I10
sg1249
I54
sS'student'
p2299
I12
sg1259
I17
sg1262
I13
sg653
I21
sS'other'
p2300
I100
sS'know'
p2301
I80
sg1281
I35
sS'carried'
p2302
I9
sS'own'
p2303
I63
sg1292
I11
sg1295
I14
sS'made'
p2304
I92
sg1300
I38
sg1303
I10
sg1266
I12
ssS'principal'
p2305
(dp2306
S'on'
p2307
I4
sS'that'
p2308
I4
sS'and'
p2309
I4
sg6
I6
ssS'write'
p2310
(dp2311
g30
I0
sg32
I0
sS'had'
p2312
I6
sS'to'
p2313
I54
sS'his'
p2314
I1
sS'they'
p2315
I2
sS'not'
p2316
I3
sS'now'
p2317
I1
sS'him'
p2318
I2
sS'out'
p2319
I4
sg45
I0
sS'for'
p2320
I6
sg54
I0
sg46
I0
sS'of'
p2321
I3
sS'could'
p2322
I9
sS'their'
p2323
I4
sS'then'
p2324
I1
sS'was'
p2325
I2
sS'that'
p2326
I4
sS'about'
p2327
I8
sS'but'
p2328
I2
sS'with'
p2329
I4
sS'he'
p2330
I5
sS'up'
p2331
I1
sS'and'
p2332
I17
sS'is'
p2333
I2
sS'in'
p2334
I3
sS'it'
p2335
I4
sS'as'
p2336
I2
sS'at'
p2337
I1
sS'have'
p2338
I1
sS'you'
p2339
I8
sS'on'
p2340
I3
sg6
I15
sS'the'
p2341
I11
sS'left'
p2342
I1
ssS'angle'
p2343
(dp2344
S'of'
p2345
I13
sS'is'
p2346
I12
ssS'raise'
p2347
(dp2348
S'to'
p2349
I17
sS'of'
p2350
I4
sS'and'
p2351
I7
sS'in'
p2352
I4
sg6
I6
sS'the'
p2353
I10
ssS'lead'
p2354
(dp2355
S'him'
p2356
I4
sS'of'
p2357
I14
sS'that'
p2358
I7
sS'as'
p2359
I7
sS'which'
p2360
I3
ssS'no'
p2361
(dp2362
S'ever'
p2363
I10
sS'would'
p2364
I38
sS'me'
p2365
I4
sS'how'
p2366
I19
sS'matter'
p2367
I31
sS'just'
p2368
I3
sS'do'
p2369
I6
sS'we'
p2370
I32
sS'never'
p2371
I2
sS'here'
p2372
I13
sS'had'
p2373
I121
sS'been'
p2374
I19
sS'much'
p2375
I3
sS'is'
p2376
I170
sS'it'
p2377
I78
sS'in'
p2378
I99
sS'make'
p2379
I13
sS'the'
p2380
I155
sS'yet'
p2381
I10
sS'has'
p2382
I35
sS'people'
p2383
I3
sS'for'
p2384
I81
sS'of'
p2385
I159
sS'way'
p2386
I25
sS'was'
p2387
I177
sS'evidence'
p2388
I10
sS'no'
p2389
I21
sS'longer'
p2390
I93
sS'time'
p2391
I20
sS'must'
p2392
I1
sS'did'
p2393
I3
sS'can'
p2394
I34
sS'such'
p2395
I18
sS'man'
p2396
I10
sS'so'
p2397
I19
sS'still'
p2398
I7
sS'not'
p2399
I10
sS'now'
p2400
I12
sS'place'
p2401
I14
sS'one'
p2402
I64
sS'little'
p2403
I8
sS'than'
p2404
I52
sS'were'
p2405
I34
sS'and'
p2406
I148
sS'take'
p2407
I8
sS'where'
p2408
I14
sS'between'
p2409
I14
sS'these'
p2410
I11
sS'on'
p2411
I23
sS'or'
p2412
I47
sS'there'
p2413
I264
sS'with'
p2414
I58
sS'at'
p2415
I28
sS'you'
p2416
I13
sS'difference'
p2417
I8
sS'what'
p2418
I19
sS'more'
p2419
I61
sg6
I52
sS'its'
p2420
I11
sS'good'
p2421
I11
sS'idea'
p2422
I13
sS'reason'
p2423
I30
sS'dont'
p2424
I3
sS'part'
p2425
I13
sS'his'
p2426
I20
sS'are'
p2427
I36
sS'theres'
p2428
I13
sS'know'
p2429
I9
sS'shall'
p2430
I7
sS'be'
p2431
I69
sS'use'
p2432
I12
sS'by'
p2433
I29
sS'question'
p2434
I9
sS'seemed'
p2435
I9
sS'let'
p2436
I1
sS'from'
p2437
I16
sS'doubt'
p2438
I36
sS'this'
p2439
I32
sS'didnt'
p2440
I3
sS'something'
p2441
I0
sS'out'
p2442
I9
sS'could'
p2443
I38
sS'their'
p2444
I9
sS'have'
p2445
I64
sS'need'
p2446
I8
sS'which'
p2447
I27
sS'should'
p2448
I10
sS'means'
p2449
I20
sS'an'
p2450
I9
sg1256
I56
sS'well'
p2451
I4
sS'less'
p2452
I10
sS'because'
p2453
I15
sS'does'
p2454
I4
sS'about'
p2455
I12
sS'but'
p2456
I97
sS'he'
p2457
I108
sS'made'
p2458
I16
sS'whether'
p2459
I2
sS'problem'
p2460
I10
sS'other'
p2461
I24
ssS'latter'
p2462
(dp2463
S'years'
p2464
I0
sS'to'
p2465
I5
sS'his'
p2466
I0
sS'for'
p2467
I3
sS'she'
p2468
I1
sS'be'
p2469
I2
sS'by'
p2470
I2
sS'on'
p2471
I2
sS'or'
p2472
I3
sS'was'
p2473
I4
sS'that'
p2474
I2
sS'but'
p2475
I0
sS'he'
p2476
I0
sS'were'
p2477
I4
sS'minutes'
p2478
I0
sS'and'
p2479
I8
sS'is'
p2480
I15
sS'it'
p2481
I0
sS'as'
p2482
I3
sS'in'
p2483
I11
sg6
I6
sg1256
I1
ssS'peace'
p2484
(dp2485
S'to'
p2486
I20
sS'for'
p2487
I18
sS'that'
p2488
I15
sS'with'
p2489
I17
sS'of'
p2490
I27
sS'and'
p2491
I41
sS'is'
p2492
I3
sS'in'
p2493
I16
sg6
I15
ssS'except'
p2494
(dp2495
S'to'
p2496
I12
sg6
I19
sS'that'
p2497
I21
sS'and'
p2498
I13
sS'in'
p2499
I17
sS'the'
p2500
I54
sS'for'
p2501
I38
sS'of'
p2502
I21
sS'was'
p2503
I8
sS'he'
p2504
I7
ssS'thorough'
p2505
(dp2506
S'all'
p2507
I1
sS'down'
p2508
I0
sS'go'
p2509
I0
sS'its'
p2510
I0
sS'from'
p2511
I1
sS'her'
p2512
I0
sS'their'
p2513
I0
sS'had'
p2514
I0
sS'to'
p2515
I1
sS'window'
p2516
I0
sS'way'
p2517
I0
sS'was'
p2518
I1
sS'them'
p2519
I0
sS'his'
p2520
I2
sS'door'
p2521
I0
sS'passed'
p2522
I0
sS'that'
p2523
I1
sS'but'
p2524
I0
sS'they'
p2525
I0
sS'not'
p2526
I0
sS'with'
p2527
I1
sS'him'
p2528
I0
sS'he'
p2529
I0
sS'this'
p2530
I0
sS'up'
p2531
I0
sS'she'
p2532
I0
sS'were'
p2533
I0
sS'went'
p2534
I0
sS'are'
p2535
I0
sS'and'
p2536
I8
sS'is'
p2537
I0
sS'it'
p2538
I0
sS'an'
p2539
I0
sS'as'
p2540
I1
sS'at'
p2541
I1
sS'in'
p2542
I0
sS'which'
p2543
I1
sS'be'
p2544
I0
sS'who'
p2545
I0
sS'the'
p2546
I2
sg6
I9
sS'on'
p2547
I0
sg1256
I0
sS'of'
p2548
I5
sS'passing'
p2549
I0
sS'or'
p2550
I0
ssS'than'
p2551
(dp2552
S'ever'
p2553
I30
sS'never'
p2554
I10
sS'must'
p2555
I5
sS'earlier'
p2556
I10
sS'before'
p2557
I16
sS'better'
p2558
I54
sS'them'
p2559
I9
sS'they'
p2560
I32
sS'one'
p2561
I39
sS'each'
p2562
I3
sS'went'
p2563
I1
sS'little'
p2564
I20
sS'took'
p2565
I3
sS'do'
p2566
I23
sS'we'
p2567
I12
sS'had'
p2568
I33
sS'been'
p2569
I19
sS'much'
p2570
I42
sS'is'
p2571
I104
sS'in'
p2572
I137
sS'has'
p2573
I25
sS'50'
p2574
I12
sS'right'
p2575
I2
sS'people'
p2576
I11
sS'for'
p2577
I72
sS'slightly'
p2578
I10
sS'down'
p2579
I2
sS'time'
p2580
I9
sS'did'
p2581
I14
sS'may'
p2582
I9
sS'man'
p2583
I8
sS'years'
p2584
I29
sS'half'
p2585
I12
sS'not'
p2586
I29
sS'now'
p2587
I6
sS'million'
p2588
I12
sS'first'
p2589
I6
sS'and'
p2590
I83
sS'any'
p2591
I61
sS'only'
p2592
I0
sS'those'
p2593
I22
sS'no'
p2594
I43
sS'around'
p2595
I2
sS'of'
p2596
I216
sS'or'
p2597
I35
sS'her'
p2598
I11
sS'longer'
p2599
I12
sS'general'
p2600
I10
sS'worse'
p2601
I9
sS'far'
p2602
I25
sS'ten'
p2603
I10
sS'what'
p2604
I9
sS'two'
p2605
I18
sS'more'
p2606
I496
sS'rather'
p2607
I134
sS'through'
p2608
I5
sS'its'
p2609
I17
sS'good'
p2610
I9
sS'since'
p2611
I3
sS'hundred'
p2612
I15
sS'most'
p2613
I16
sS'nothing'
p2614
I20
sS'him'
p2615
I7
sS'are'
p2616
I54
sS'became'
p2617
I1
sS'else'
p2618
I9
sS'higher'
p2619
I17
sS'lower'
p2620
I11
sS'back'
p2621
I1
sS'be'
p2622
I60
sS'anything'
p2623
I16
sS'up'
p2624
I4
sS'larger'
p2625
I18
sS'this'
p2626
I34
sS'something'
p2627
I13
sS'greater'
p2628
I30
sS'our'
p2629
I8
sS'out'
p2630
I7
sS'their'
p2631
I22
sS'have'
p2632
I32
sS'said'
p2633
I1
sS'she'
p2634
I14
sS'an'
p2635
I29
sS'will'
p2636
I5
sS'off'
p2637
I4
sS'usual'
p2638
I11
sS'less'
p2639
I150
sS'because'
p2640
I8
sS'about'
p2641
I11
sS'but'
p2642
I12
sS'other'
p2643
I83
ssS'presents'
p2644
(dp2645
S'his'
p2646
I0
sS'of'
p2647
I8
sS'and'
p2648
I3
sS'in'
p2649
I3
sS'the'
p2650
I14
ssS'their'
p2651
(dp2652
S'men'
p2653
I34
sS'here'
p2654
I2
sS'quite'
p2655
I1
sS'would'
p2656
I19
sS'must'
p2657
I7
sS'me'
p2658
I4
sS'work'
p2659
I22
sg146
I11
sS'after'
p2660
I14
sS'before'
p2661
I11
sS'then'
p2662
I13
sS'they'
p2663
I103
sS'each'
p2664
I10
sS'got'
p2665
I3
sS'though'
p2666
I6
sS'stood'
p2667
I1
sS'do'
p2668
I16
sS'best'
p2669
I9
sS'never'
p2670
I4
sS'however'
p2671
I7
sS'against'
p2672
I12
sS'been'
p2673
I13
sS'much'
p2674
I4
sS'life'
p2675
I9
sS'is'
p2676
I59
sS'in'
p2677
I349
sS'things'
p2678
I4
sg166
I15
sS'several'
p2679
I2
sS'just'
p2680
I1
sS'has'
p2681
I7
sS'old'
p2682
I8
sS'people'
p2683
I25
sS'for'
p2684
I130
sS'of'
p2685
I381
sS'down'
p2686
I12
sS'way'
p2687
I40
sS'was'
p2688
I32
sS'evidence'
p2689
I1
sS'no'
p2690
I8
sS'such'
p2691
I9
sS'still'
p2692
I7
sS'now'
p2693
I6
sS'place'
p2694
I10
sS'one'
p2695
I15
sS'eyes'
p2696
I10
sS'than'
p2697
I23
sS'future'
p2698
I9
sS'were'
p2699
I50
sS'any'
p2700
I3
sS'where'
p2701
I3
sS'many'
p2702
I9
sS'those'
p2703
I8
sS'these'
p2704
I14
sS'money'
p2705
I10
sS'on'
p2706
I115
sS'or'
p2707
I45
sS'with'
p2708
I92
sS'you'
p2709
I6
sS'children'
p2710
I12
sS'to'
p2711
I414
sS'experience'
p2712
I12
sS'social'
p2713
I8
sS'family'
p2714
I9
sg208
I10
sg6
I64
sS'through'
p2715
I17
sS'might'
p2716
I4
sS'always'
p2717
I5
sS'since'
p2718
I4
sS'reason'
p2719
I2
sg214
I11
sS'put'
p2720
I11
sg216
I11
sS'feet'
p2721
I9
sS'relationship'
p2722
I13
sS'part'
p2723
I8
sg219
I12
sS'also'
p2724
I4
sS'most'
p2725
I13
sS'nothing'
p2726
I3
sS'during'
p2727
I11
sS'are'
p2728
I61
sS'both'
p2729
I13
sS'some'
p2730
I13
sS'be'
p2731
I34
sS'use'
p2732
I16
sS'by'
p2733
I50
sS'into'
p2734
I34
sS'question'
p2735
I2
sS'long'
p2736
I1
sS'an'
p2737
I10
sS'from'
p2738
I61
sS'few'
p2739
I7
sS'this'
p2740
I9
sS'something'
p2741
I3
sg239
I14
sS'day'
p2742
I7
sS'her'
p2743
I4
sS'there'
p2744
I3
sS'their'
p2745
I70
sS'who'
p2746
I33
sS'looked'
p2747
I8
sS'should'
p2748
I7
sS'indeed'
p2749
I2
sS'she'
p2750
I8
sg245
I18
sS'home'
p2751
I13
sS'own'
p2752
I114
sS'but'
p2753
I44
sS'he'
p2754
I18
sS'made'
p2755
I12
sS'whether'
p2756
I2
sg226
I20
ssS'youre'
p2757
(dp2758
S'all'
p2759
I0
sS'how'
p2760
I2
sS'to'
p2761
I13
sS'going'
p2762
I8
sS'has'
p2763
I0
sS'do'
p2764
I0
sS'return'
p2765
I0
sS'get'
p2766
I0
sS'not'
p2767
I6
sS'house'
p2768
I0
sS'see'
p2769
I0
sS'are'
p2770
I1
sS'what'
p2771
I4
sS'said'
p2772
I2
sS'for'
p2773
I3
sS'be'
p2774
I5
sS'on'
p2775
I0
sS'about'
p2776
I2
sS'of'
p2777
I1
sS'or'
p2778
I0
sS'and'
p2779
I8
sS'own'
p2780
I0
sS'dont'
p2781
I1
sS'one'
p2782
I2
sS'your'
p2783
I1
sS'was'
p2784
I2
sS'life'
p2785
I0
sS'that'
p2786
I2
sS'company'
p2787
I0
sS'but'
p2788
I3
sS'with'
p2789
I4
sS'he'
p2790
I3
sS'me'
p2791
I0
sS'this'
p2792
I1
sS'up'
p2793
I1
sS'will'
p2794
I0
sS'can'
p2795
I1
sS'is'
p2796
I0
sS'it'
p2797
I2
sS'as'
p2798
I1
sS'at'
p2799
I0
sS'have'
p2800
I0
sS'in'
p2801
I3
sS'if'
p2802
I9
sS'make'
p2803
I0
sS'take'
p2804
I1
sS'you'
p2805
I7
sS'time'
p2806
I1
sS'pool'
p2807
I0
sg6
I8
sg1256
I9
sS'the'
p2808
I11
ssS'reign'
p2809
(dp2810
S'and'
p2811
I2
sS'in'
p2812
I2
sS'to'
p2813
I3
sg6
I1
sS'of'
p2814
I3
sS'the'
p2815
I0
ssS'too'
p2816
(dp2817
S'limited'
p2818
I1
sS'all'
p2819
I16
sS'consider'
p2820
I1
sS'chinese'
p2821
I1
sg835
I0
sg839
I0
sg2015
I0
sg1818
I0
sS'sleep'
p2822
I3
sg841
I0
sS'forget'
p2823
I1
sg2073
I0
sg842
I0
sg843
I0
sg844
I0
sg2132
I0
sS'under'
p2824
I1
sg845
I0
sg846
I0
sg847
I0
sS'very'
p2825
I3
sg295
I0
sg296
I0
sg849
I0
sg2141
I0
sg2142
I0
sg852
I0
sS'school'
p2826
I2
sg297
I0
sS'large'
p2827
I5
sS'small'
p2828
I5
sS'force'
p2829
I2
sg2187
I0
sg300
I0
sg1885
I0
sg1976
I0
sg1819
I0
sS'street'
p2830
I1
sS'design'
p2831
I1
sg1886
I0
sg2143
I0
sS'even'
p2832
I4
sS'what'
p2833
I2
sS'stood'
p2834
I1
sg305
I0
sg2037
I0
sg306
I0
sS'new'
p2835
I1
sg861
I0
sg308
I0
sg437
I0
sg863
I0
sS'movement'
p2836
I1
sS'full'
p2837
I1
sg866
I0
sS'never'
p2838
I3
sS'here'
p2839
I4
sS'dry'
p2840
I1
sg1967
I0
sg2017
I0
sS'study'
p2841
I1
sg314
I0
sg869
I0
sg870
I0
sS'social'
p2842
I1
sS'action'
p2843
I1
sS'military'
p2844
I1
sg494
I0
sg872
I0
sS'suddenly'
p2845
I1
sg320
I0
sS'put'
p2846
I1
sg875
I0
sS'would'
p2847
I11
sg323
I0
sg321
I0
sS'music'
p2848
I1
sg1822
I0
sS'taken'
p2849
I1
sg327
I0
sg328
I0
sS'more'
p2850
I2
sS'door'
p2851
I1
sg329
I0
sg1891
I0
sg2146
I0
sS'known'
p2852
I1
sg330
I0
sg882
I0
sS'must'
p2853
I1
sS'me'
p2854
I7
sg1946
I0
sg2079
I0
sg2147
I0
sS'work'
p2855
I5
sg2224
I0
sS'mr'
p2856
I3
sS'im'
p2857
I1
sS'my'
p2858
I5
sg1823
I0
sg888
I0
sS'give'
p2859
I2
sg889
I0
sS'states'
p2860
I1
sg622
I0
sg339
I0
sg892
I0
sS'times'
p2861
I1
sg1894
I0
sg894
I0
sg341
I0
sg342
I0
sS'turn'
p2862
I2
sg1948
I0
sS'how'
p2863
I2
sS'writers'
p2864
I1
sg347
I0
sg896
I0
sg1949
I0
sS'lay'
p2865
I2
sS'coming'
p2866
I1
sS'president'
p2867
I1
sg1951
I0
sg2195
I0
sg1825
I0
sg6
I61
sS'short'
p2868
I1
sg353
I0
sg354
I0
sg2081
I0
sS'things'
p2869
I4
sg357
I0
sg1952
I0
sg2019
I0
sg360
I0
sg361
I0
sS'over'
p2870
I3
sg901
I0
sS'held'
p2871
I1
sS'paper'
p2872
I1
sS'through'
p2873
I1
sg905
I0
sg2021
I0
sS'its'
p2874
I10
sS'fit'
p2875
I1
sS'personal'
p2876
I2
sg2003
I0
sS'better'
p2877
I2
sg2084
I0
sS'might'
p2878
I2
sg1826
I0
sS'then'
p2879
I6
sS'them'
p2880
I8
sS'good'
p2881
I10
sg911
I0
sg912
I0
sS'safe'
p2882
I2
sg372
I0
sg1827
I0
sS'they'
p2883
I12
sg1868
I0
sg913
I0
sS'easily'
p2884
I2
sS'always'
p2885
I2
sg2022
I0
sg1956
I0
sS'each'
p2886
I1
sS'found'
p2887
I2
sS'went'
p2888
I1
sg489
I0
sg2086
I0
sg380
I0
sg919
I0
sg1896
I0
sS'house'
p2889
I1
sS'hard'
p2890
I5
sg923
I0
sS'idea'
p2891
I2
sg2039
I0
sg2088
I0
sg925
I0
sg926
I0
sS'leave'
p2892
I2
sg383
I0
sg661
I0
sg2023
I0
sg929
I0
sg384
I0
sS'got'
p2893
I3
sS'little'
p2894
I10
sg2200
I0
sg1957
I0
sg931
I0
sg2251
I0
sg874
I0
sg934
I0
sg2201
I0
sg2153
I0
sS'american'
p2895
I2
sg937
I0
sg1897
I0
sS'already'
p2896
I2
sS'dont'
p2897
I4
sS'feel'
p2898
I2
sg1899
I0
sg2267
I0
sg2257
I0
sS'done'
p2899
I1
sg1958
I0
sS'miss'
p2900
I3
sg2026
I0
sg946
I0
sS'service'
p2901
I1
sS'their'
p2902
I9
sg947
I0
sg2203
I0
sS'girls'
p2903
I1
sS'least'
p2904
I1
sg397
I0
sS'too'
p2905
I10
sg2155
I0
sg399
I0
sg400
I0
sg1900
I0
sg2027
I0
sg2258
I0
sg401
I0
sS'took'
p2906
I1
sS'part'
p2907
I1
sg403
I0
sS'believe'
p2908
I1
sg404
I0
sg954
I0
sS'kind'
p2909
I2
sg405
I0
sg1828
I0
sg407
I0
sg408
I0
sg1901
I0
sg957
I0
sg958
I0
sg959
I0
sg2206
I0
sS'wasnt'
p2910
I3
sg411
I0
sS'mind'
p2911
I2
sg2208
I0
sg2028
I0
sS'seen'
p2912
I3
sS'seem'
p2913
I2
sg2090
I0
sg2156
I0
sS'sell'
p2914
I1
sg416
I0
sS'strength'
p2915
I1
sg692
I0
sg2209
I0
sS'also'
p2916
I4
sg420
I0
sg965
I0
sg1959
I0
sg1903
I0
sg2259
I0
sg423
I0
sS'reach'
p2917
I1
sS'most'
p2918
I1
sg424
I0
sg970
I0
sg425
I0
sg1039
I0
sS'nothing'
p2919
I2
sg304
I0
sg972
I0
sg2029
I0
sS'sometimes'
p2920
I1
sg975
I0
sg2162
I0
sS'came'
p2921
I1
sg976
I0
sg428
I0
sS'relation'
p2922
I1
sg429
I0
sS'fine'
p2923
I2
sS'find'
p2924
I2
sg490
I0
sS'just'
p2925
I5
sS'justice'
p2926
I1
sg431
I0
sg981
I0
sg982
I0
sS'pretty'
p2927
I1
sS'do'
p2928
I7
sS'his'
p2929
I14
sg1142
I0
sg435
I0
sg2031
I0
sS'him'
p2930
I11
sg595
I0
sg2210
I0
sg987
I0
sg2211
I0
sg2287
I0
sg1944
I0
sg988
I0
sS'secretary'
p2931
I1
sg439
I0
sg1904
I0
sg990
I0
sg2106
I0
sS'reference'
p2932
I1
sS'see'
p2933
I4
sg2092
I0
sS'are'
p2934
I29
sg994
I0
sg441
I0
sg442
I0
sS'close'
p2935
I5
sS'best'
p2936
I1
sS'subject'
p2937
I1
sS'said'
p2938
I9
sg446
I0
sS'pictures'
p2939
I2
sS'away'
p2940
I2
sg448
I0
sg2264
I0
sg998
I0
sg2033
I0
sg1216
I0
sS'we'
p2941
I13
sg1001
I0
sS'however'
p2942
I1
sS'extent'
p2943
I1
sg454
I0
sg2034
I0
sg1906
I0
sg1831
I0
sS'ill'
p2944
I1
sS'against'
p2945
I2
sg1005
I0
sS'became'
p2946
I1
sg458
I0
sg459
I0
sS'whole'
p2947
I1
sS'asked'
p2948
I2
sg1008
I0
sg1263
I0
sg2095
I0
sg2166
I0
sg1010
I0
sg1908
I0
sg2212
I0
sg463
I0
sg1012
I0
sg1832
I0
sg1013
I0
sS'political'
p2949
I1
sg1015
I0
sS'been'
p2950
I17
sg2207
I0
sg2096
I0
sg2097
I0
sS'expected'
p2951
I3
sg1833
I0
sS'else'
p2952
I1
sg1018
I0
sg2160
I0
sS'child'
p2953
I1
sS'catch'
p2954
I1
sS'applied'
p2955
I2
sS'has'
p2956
I8
sS'look'
p2957
I1
sg1022
I0
sS'air'
p2958
I1
sg474
I0
sg1023
I0
sg475
I0
sg476
I0
sg477
I0
sS'voice'
p2959
I3
sg2268
I0
sg479
I0
sS'century'
p2960
I1
sS'is'
p2961
I62
sS'it'
p2962
I39
sS'cant'
p2963
I1
sS'itself'
p2964
I2
sg1028
I0
sS'in'
p2965
I31
sg2038
I0
sg484
I0
sS'if'
p2966
I7
sg316
I0
sg356
I0
sS'make'
p2967
I1
sg359
I0
sg2234
I0
sg2215
I0
sg2169
I0
sS'higher'
p2968
I1
sg1032
I0
sg590
I0
sg2040
I0
sg2077
I0
sS'hand'
p2969
I1
sg2269
I0
sg2161
I0
sg493
I0
sg2188
I0
sS'youre'
p2970
I2
sg2270
I0
sg1037
I0
sg1038
I0
sg496
I0
sS'claims'
p2971
I1
sS'the'
p2972
I99
sS'musical'
p2973
I2
sS'left'
p2974
I5
sg430
I0
sg502
I0
sg2271
I0
sg1041
I0
sg1270
I0
sS'yet'
p2975
I1
sS'cut'
p2976
I1
sS'workers'
p2977
I1
sS'had'
p2978
I30
sS'belongs'
p2979
I1
sg1045
I0
sg507
I0
sS'easy'
p2980
I4
sg746
I0
sg1046
I0
sg2216
I0
sg2041
I0
sg1911
I0
sS'possible'
p2981
I1
sS'desire'
p2982
I1
sg513
I0
sg1912
I0
sg1838
I0
sS'night'
p2983
I1
sg2273
I0
sg1839
I0
sS'often'
p2984
I15
sg517
I0
sS'people'
p2985
I2
sS'some'
p2986
I3
sS'back'
p2987
I1
sg1053
I0
sg519
I0
sg1054
I0
sS'for'
p2988
I48
sg2164
I0
sg1056
I0
sg522
I0
sS'asking'
p2989
I1
sg1057
I0
sS'be'
p2990
I39
sS'knew'
p2991
I6
sg2043
I0
sg2227
I0
sg1060
I0
sg2135
I0
sg1062
I0
sS'permitted'
p2992
I1
sg1064
I0
sg1866
I0
sg2274
I0
sg1034
I0
sg1974
I0
sg2218
I0
sS'into'
p2993
I2
sg2044
I0
sg530
I0
sg2078
I0
sS'down'
p2994
I2
sg2158
I0
sg1069
I0
sS'next'
p2995
I1
sg1913
I0
sg1966
I0
sS'support'
p2996
I1
sS'question'
p2997
I1
sS'fight'
p2998
I1
sS'way'
p2999
I1
sS'forward'
p3000
I1
sg536
I0
sS'was'
p3001
I77
sg1972
I0
sS'happy'
p3002
I2
sg540
I0
sS'himself'
p3003
I1
sS'an'
p3004
I10
sg2109
I0
sg1843
I0
sg543
I0
sg544
I0
sg545
I0
sS'hear'
p3005
I1
sg1917
I0
sS'true'
p3006
I2
sS'directed'
p3007
I1
sg1844
I0
sg549
I0
sS'up'
p3008
I3
sS'us'
p3009
I2
sg2046
I0
sS'called'
p3010
I1
sS'proved'
p3011
I1
sg1079
I0
sS'evidence'
p3012
I1
sg552
I0
sS'mrs'
p3013
I1
sg767
I0
sS'physical'
p3014
I2
sS'no'
p3015
I3
sg1080
I0
sS'when'
p3016
I5
sg557
I0
sS'power'
p3017
I1
sg1081
I0
sS'nice'
p3018
I1
sS'picture'
p3019
I1
sS'draw'
p3020
I1
sg2292
I0
sS'felt'
p3021
I3
sS'problems'
p3022
I2
sg1085
I0
sg2047
I0
sS'meaning'
p3023
I1
sg561
I0
sS'longer'
p3024
I1
sS'assume'
p3025
I2
sg1087
I0
sS'walked'
p3026
I1
sS'time'
p3027
I4
sg566
I0
sS'serious'
p3028
I1
sS'having'
p3029
I2
sS'once'
p3030
I3
sg568
I0
sg1975
I0
sS'results'
p3031
I1
sg570
I0
sS'go'
p3032
I4
sS'seemed'
p3033
I2
sg572
I0
sg573
I0
sS'father'
p3034
I1
sS'young'
p3035
I6
sg1095
I0
sg576
I0
sg884
I0
sg1892
I0
sg578
I0
sS'wished'
p3036
I1
sg579
I0
sS'outside'
p3037
I1
sg1100
I0
sg2191
I0
sS'trouble'
p3038
I1
sg1924
I0
sg2112
I0
sS'level'
p3039
I1
sS'did'
p3040
I2
sg584
I0
sS'anxious'
p3041
I1
sS'prevent'
p3042
I1
sg587
I0
sg2223
I0
sS'discover'
p3043
I1
sg591
I0
sg1977
I0
sS'appear'
p3044
I1
sg1104
I0
sg1105
I0
sS'goes'
p3045
I1
sg1849
I0
sS'ground'
p3046
I1
sg2165
I0
sg1107
I0
sg1108
I0
sS'learn'
p3047
I1
sS'water'
p3048
I1
sS'let'
p3049
I2
sg621
I0
sg1846
I0
sS'along'
p3050
I1
sg599
I0
sg1978
I0
sg2114
I0
sS'boy'
p3051
I3
sS'great'
p3052
I7
sS'receive'
p3053
I1
sg604
I0
sS'usually'
p3054
I1
sS'love'
p3055
I2
sS'heart'
p3056
I1
sg1114
I0
sg607
I0
sS'apt'
p3057
I1
sg2278
I0
sg525
I0
sg2279
I0
sS'from'
p3058
I4
sg1848
I0
sg609
I0
sg1118
I0
sg2048
I0
sS'visit'
p3059
I1
sS'by'
p3060
I6
sS'few'
p3061
I5
sS'live'
p3062
I2
sS'themselves'
p3063
I2
sS'today'
p3064
I1
sg613
I0
sS'started'
p3065
I1
sg1124
I0
sg1286
I0
sg614
I0
sg1125
I0
sg615
I0
sg2282
I0
sg616
I0
sS'anything'
p3066
I1
sS'this'
p3067
I16
sg1980
I0
sg1127
I0
sS'obvious'
p3068
I3
sS'can'
p3069
I5
sS'of'
p3070
I46
sg1130
I0
sS'didnt'
p3071
I4
sg2226
I0
sg1132
I0
sg1113
I0
sg1133
I0
sS'something'
p3072
I2
sg1850
I0
sS'sought'
p3073
I1
sg626
I0
sg2283
I0
sg2284
I0
sg1138
I0
sS'get'
p3074
I2
sS'dinner'
p3075
I1
sS'write'
p3076
I1
sg1929
I0
sg1140
I0
sS'may'
p3077
I8
sg434
I0
sg1985
I0
sg631
I0
sg2116
I0
sg1851
I0
sS'such'
p3078
I1
sg1853
I0
sg635
I0
sS'man'
p3079
I6
sS'stress'
p3080
I1
sg638
I0
sg1986
I0
sg1143
I0
sg2254
I0
sS'cannot'
p3081
I2
sS'so'
p3082
I9
sS'allow'
p3083
I1
sg642
I0
sg643
I0
sg1145
I0
sS'course'
p3084
I1
sg2052
I0
sS'still'
p3085
I3
sg646
I0
sg628
I0
sg647
I0
sS'chosen'
p3086
I1
sg1149
I0
sg1150
I0
sg1151
I0
sg648
I0
sg2228
I0
sg1152
I0
sg2177
I0
sg650
I0
sg927
I0
sg2053
I0
sS'not'
p3087
I39
sS'now'
p3088
I3
sg1264
I0
sS'wont'
p3089
I2
sg2229
I0
sg2230
I0
sg1157
I0
sS'entirely'
p3090
I1
sS'doing'
p3091
I2
sg1159
I0
sg1930
I0
sS'begun'
p3092
I2
sg1989
I0
sS'our'
p3093
I3
sS'happen'
p3094
I1
sg2055
I0
sS'out'
p3095
I7
sg2119
I0
sS'space'
p3096
I1
sg664
I0
sg2050
I0
sS'cause'
p3097
I1
sg2170
I0
sS'theory'
p3098
I1
sS'state'
p3099
I1
sg1855
I0
sS'quite'
p3100
I1
sg2056
I0
sg2288
I0
sS'care'
p3101
I1
sg1857
I0
sS'her'
p3102
I14
sS'could'
p3103
I5
sS'area'
p3104
I3
sS'keep'
p3105
I1
sg343
I0
sg2231
I0
sS'think'
p3106
I5
sg2171
I0
sg2120
I0
sg1175
I0
sS'one'
p3107
I2
sg1990
I0
sg677
I0
sS'impossible'
p3108
I2
sS'message'
p3109
I2
sg681
I0
sg682
I0
sg387
I0
sg1178
I0
sg1933
I0
sg2149
I0
sS'anyone'
p3110
I1
sg685
I0
sg1181
I0
sg686
I0
sS'white'
p3111
I1
sg2205
I0
sg1991
I0
sg690
I0
sS'eyes'
p3112
I3
sS'that'
p3113
I43
sg2058
I0
sg1308
I0
sg1183
I0
sS'than'
p3114
I1
sg694
I0
sg2123
I0
sg695
I0
sg696
I0
sg2059
I0
sg697
I0
sS'were'
p3115
I20
sS'and'
p3116
I70
sS'turned'
p3117
I1
sg426
I0
sS'say'
p3118
I1
sS'have'
p3119
I19
sS'need'
p3120
I4
sS'apparently'
p3121
I1
sg1934
I0
sg2012
I0
sg2060
I0
sg1860
I0
sS'take'
p3122
I5
sS'which'
p3123
I4
sg705
I0
sg706
I0
sg1963
I0
sg707
I0
sS'sure'
p3124
I2
sg2174
I0
sg709
I0
sS'price'
p3125
I1
sS'who'
p3126
I4
sg2125
I0
sg713
I0
sg2219
I0
sg1194
I0
sg2126
I0
sS'later'
p3127
I1
sg2110
I0
sS'face'
p3128
I2
sg1196
I0
sg718
I0
sS'occasion'
p3129
I1
sg1935
I0
sg2127
I0
sS'bring'
p3130
I1
sg1200
I0
sg1936
I0
sg1202
I0
sg2235
I0
sS'should'
p3131
I3
sS'only'
p3132
I7
sS'going'
p3133
I1
sg1204
I0
sS'hope'
p3134
I3
sg1938
I0
sg1207
I0
sg1208
I0
sg1984
I0
sg1209
I0
sS'familiar'
p3135
I3
sS'ones'
p3136
I2
sg2129
I0
sS'areas'
p3137
I1
sg449
I0
sg1213
I0
sg2130
I0
sS'she'
p3138
I14
sg1864
I0
sg1999
I0
sS'view'
p3139
I1
sg1820
I0
sg2176
I0
sS'college'
p3140
I1
sS'concern'
p3141
I1
sg1217
I0
sg1218
I0
sg1862
I0
sg1219
I0
sg733
I0
sg2000
I0
sg735
I0
sg1926
I0
sg1221
I0
sg1222
I0
sg895
I0
sS'job'
p3142
I1
sg1224
I0
sg1225
I0
sS'come'
p3143
I3
sg738
I0
sS'many'
p3144
I17
sS'taking'
p3145
I1
sg740
I0
sg1228
I0
sg1229
I0
sS'comes'
p3146
I1
sS'duty'
p3147
I1
sS'among'
p3148
I1
sg1002
I0
sg1230
I0
sg2238
I0
sS'walk'
p3149
I1
sg745
I0
sS'respect'
p3150
I1
sg2197
I0
sg2064
I0
sg747
I0
sg1234
I0
sg1235
I0
sg820
I0
sg1236
I0
sg748
I0
sg749
I0
sS'am'
p3151
I1
sg1238
I0
sg751
I0
sg2239
I0
sS'present'
p3152
I1
sg2240
I0
sg755
I0
sS'these'
p3153
I3
sg1241
I0
sS'will'
p3154
I3
sg1939
I0
sg758
I0
sS'thus'
p3155
I1
sg1244
I0
sg1227
I0
sS'someone'
p3156
I1
sS'worry'
p3157
I3
sg763
I0
sg764
I0
sS'pay'
p3158
I1
sg1245
I0
sg2134
I0
sS'trip'
p3159
I1
sg1246
I0
sg2066
I0
sg1248
I0
sS'difficult'
p3160
I3
sS'extended'
p3161
I1
sg1940
I0
sS'effect'
p3162
I1
sg2145
I0
sg2299
I0
sg769
I0
sS'frequently'
p3163
I1
sS'off'
p3164
I2
sg1255
I0
sg790
I0
sg1256
I26
sg770
I0
sS'well'
p3165
I8
sS'thought'
p3166
I6
sS'without'
p3167
I2
sg1259
I0
sg772
I0
sg1260
I0
sg2030
I0
sS'being'
p3168
I5
sS'money'
p3169
I1
sS'obtain'
p3170
I1
sg775
I0
sg2054
I0
sg776
I0
sg777
I0
sg778
I0
sg2005
I0
sg2242
I0
sg2298
I0
sS'seems'
p3171
I1
sg2243
I0
sg653
I0
sg2178
I0
sg1266
I0
sg1267
I0
sg1909
I0
sS'around'
p3172
I1
sg1942
I0
sS'read'
p3173
I1
sg558
I0
sS'know'
p3174
I2
sg1910
I0
sg787
I0
sS'world'
p3175
I2
sS'necessary'
p3176
I1
sS'like'
p3177
I6
sg1274
I0
sS'audience'
p3178
I1
sg1275
I0
sS'become'
p3179
I2
sg2180
I0
sS'soft'
p3180
I3
sg791
I0
sg792
I0
sg1279
I0
sg2296
I0
sg2069
I0
sg1281
I0
sS'avoid'
p3181
I1
sS'does'
p3182
I2
sg793
I0
sS'business'
p3183
I1
sg795
I0
sS'throw'
p3184
I1
sS'on'
p3185
I19
sS'about'
p3186
I12
sg2007
I0
sS'carried'
p3187
I1
sg2136
I0
sg1872
I0
sS'stand'
p3188
I3
sg802
I0
sg2008
I0
sg1287
I0
sg2137
I0
sS'own'
p3189
I2
sS'washington'
p3190
I2
sg1290
I0
sg804
I0
sg1873
I0
sS'your'
p3191
I5
sg2070
I0
sg2009
I0
sg2182
I0
sg1292
I0
sg1932
I0
sS'low'
p3192
I2
sg811
I0
sg2183
I0
sg2071
I0
sg1875
I0
sg2131
I0
sg1295
I0
sg814
I0
sS'but'
p3193
I32
sg2087
I0
sg2011
I0
sS'with'
p3194
I16
sS'eat'
p3195
I4
sS'he'
p3196
I50
sg817
I0
sS'made'
p3197
I4
sS'whether'
p3198
I1
sS'wish'
p3199
I1
sg1303
I0
sS'limit'
p3200
I1
sg1305
I0
sg1306
I0
sS'gone'
p3201
I1
sg1877
I0
sg2065
I0
sg1161
I0
sS'moved'
p3202
I1
sS'general'
p3203
I1
sS'as'
p3204
I10
sS'at'
p3205
I5
sg826
I0
sS'education'
p3206
I1
sg2118
I0
sg827
I0
sS'again'
p3207
I3
sg2067
I0
sS'field'
p3208
I1
sS'other'
p3209
I4
sg830
I0
sS'you'
p3210
I12
sg750
I0
sS'congress'
p3211
I1
sg2248
I0
sg2138
I0
sS'stay'
p3212
I2
sg883
I0
sg1315
I0
sS'important'
p3213
I3
sg1316
I0
sg2159
I0
sg2249
I0
ssS'fourth'
p3214
(dp3215
S'set'
p3216
I0
sS'back'
p3217
I0
sS'of'
p3218
I13
sS'and'
p3219
I4
sS'the'
p3220
I33
ssS'between'
p3221
(dp3222
g3
I50
sg4
I43
sS'this'
p3223
I9
sS'in'
p3224
I32
sg6
I77
sS'them'
p3225
I13
sg8
I14
sS'that'
p3226
I20
sS'and'
p3227
I283
sS'are'
p3228
I4
sS'these'
p3229
I12
sS'is'
p3230
I33
sg13
I11
sS'the'
p3231
I351
sS'for'
p3232
I7
sS'of'
p3233
I73
sS'or'
p3234
I11
sS'was'
p3235
I18
sS'differences'
p3236
I10
sS'but'
p3237
I5
sS'he'
p3238
I10
sS'an'
p3239
I14
sS'as'
p3240
I15
sS'no'
p3241
I12
sS'other'
p3242
I3
ssS'new'
p3243
(dp3244
S'never'
p3245
I0
sS'would'
p3246
I6
sS'how'
p3247
I4
sS'they'
p3248
I10
sS'each'
p3249
I12
sS'we'
p3250
I4
sS'is'
p3251
I62
sS'it'
p3252
I9
sS'in'
p3253
I92
sS'the'
p3254
I295
sS'has'
p3255
I13
sS'birth'
p3256
I13
sS'for'
p3257
I51
sS'some'
p3258
I10
sS'that'
p3259
I28
sS'and'
p3260
I102
sS'only'
p3261
I5
sS'these'
p3262
I8
sS'on'
p3263
I23
sS'of'
p3264
I227
sS'or'
p3265
I13
sS'her'
p3266
I3
sS'with'
p3267
I30
sS'at'
p3268
I12
sS'you'
p3269
I1
sS'to'
p3270
I94
sS'what'
p3271
I12
sS'members'
p3272
I28
sg6
I214
sS'its'
p3273
I8
sS'his'
p3274
I12
sS'are'
p3275
I14
sS'be'
p3276
I18
sS'by'
p3277
I21
sS'into'
p3278
I10
sS'from'
p3279
I12
sS'this'
p3280
I36
sS'have'
p3281
I10
sS'which'
p3282
I13
sS'who'
p3283
I2
sS'she'
p3284
I3
sS'as'
p3285
I30
sS'will'
p3286
I10
sg1256
I3
sS'well'
p3287
I4
sS'but'
p3288
I10
sS'he'
p3289
I8
ssS'through'
p3290
(dp3291
g2519
I10
sg2525
I17
sg2534
I14
sg2537
I19
sg2538
I32
sg2542
I41
sS'the'
p3292
I367
sg2514
I32
sg2508
I9
sg2517
I12
sS'was'
p3293
I19
sg2544
I16
sg2516
I10
sg2526
I14
sS'that'
p3294
I26
sg2533
I10
sS'and'
p3295
I137
sg2547
I11
sg2550
I14
sg2512
I17
sS'with'
p3296
I18
sS'as'
p3297
I19
sS'at'
p3298
I13
sS'all'
p3299
I22
sS'to'
p3300
I76
sg2521
I15
sg6
I85
sg2510
I12
sg2522
I19
sS'his'
p3301
I39
sg2528
I15
sg2535
I11
sg2539
I12
sg2531
I12
sg2509
I10
sS'from'
p3302
I13
sg2530
I15
sS'of'
p3303
I140
sg2513
I12
sS'which'
p3304
I21
sg2545
I11
sg2532
I7
sg2549
I12
sg1256
I11
sg2524
I10
sg2529
I24
ssS'forth'
p3305
(dp3306
g3216
I14
sg3217
I20
sS'of'
p3307
I3
sS'and'
p3308
I28
sS'the'
p3309
I17
ssS'cite'
p3310
(dp3311
S'and'
p3312
I0
sg6
I0
sS'of'
p3313
I0
sS'in'
p3314
I0
sS'was'
p3315
I0
sS'out'
p3316
I0
ssS'where'
p3317
(dp3318
S'whose'
p3319
I0
sS'new'
p3320
I5
sS'men'
p3321
I2
sS'here'
p3322
I4
sS'obtained'
p3323
I0
sS'me'
p3324
I3
sS'already'
p3325
I2
sS'my'
p3326
I3
sS'over'
p3327
I0
sS'then'
p3328
I3
sS'them'
p3329
I6
sS'they'
p3330
I42
sS'each'
p3331
I0
sS'little'
p3332
I6
sS'girls'
p3333
I1
sS'too'
p3334
I0
sS'talking'
p3335
I0
sS'even'
p3336
I6
sS'though'
p3337
I0
sS'cattle'
p3338
I1
sS'said'
p3339
I5
sS'we'
p3340
I20
sS'three'
p3341
I1
sS'been'
p3342
I11
sS'is'
p3343
I81
sS'in'
p3344
I67
sS'if'
p3345
I1
sS'things'
p3346
I2
sS'several'
p3347
I2
sS'the'
p3348
I313
sS'yet'
p3349
I1
sS'had'
p3350
I43
sS'people'
p3351
I3
sS'for'
p3352
I13
sS'was'
p3353
I46
sS'no'
p3354
I10
sS'when'
p3355
I9
sS'time'
p3356
I0
sS'can'
p3357
I18
sS'may'
p3358
I10
sS'such'
p3359
I2
sS'so'
p3360
I0
sS'years'
p3361
I0
sS'still'
p3362
I6
sS'not'
p3363
I12
sS'now'
p3364
I3
sS'place'
p3365
I17
sS'first'
p3366
I2
sS'one'
p3367
I9
sS'given'
p3368
I3
sS'eyes'
p3369
I0
sS'that'
p3370
I16
sS'than'
p3371
I0
sS'were'
p3372
I25
sS'and'
p3373
I73
sS'knew'
p3374
I4
sS'later'
p3375
I1
sS'only'
p3376
I4
sS'going'
p3377
I5
sS'held'
p3378
I2
sS'where'
p3379
I0
sS'up'
p3380
I6
sS'enough'
p3381
I0
sS'many'
p3382
I4
sS'those'
p3383
I5
sS'these'
p3384
I4
sS'same'
p3385
I1
sS'being'
p3386
I3
sS'on'
p3387
I21
sS'or'
p3388
I7
sS'her'
p3389
I5
sS'there'
p3390
I16
sS'with'
p3391
I8
sS'as'
p3392
I10
sS'at'
p3393
I18
sS'you'
p3394
I27
sS'all'
p3395
I11
sS'children'
p3396
I1
sS'to'
p3397
I82
sS'very'
p3398
I1
sS'large'
p3399
I2
sS'what'
p3400
I3
sS'two'
p3401
I4
sS'more'
p3402
I5
sg6
I65
sS'through'
p3403
I2
sS'good'
p3404
I1
sS'always'
p3405
I1
sS'found'
p3406
I4
sS'members'
p3407
I2
sS'officers'
p3408
I1
sS'also'
p3409
I4
sS'most'
p3410
I3
sS'his'
p3411
I18
sS'him'
p3412
I3
sS'are'
p3413
I31
sS'both'
p3414
I2
sS'last'
p3415
I1
sS'while'
p3416
I1
sS'used'
p3417
I2
sS'without'
p3418
I2
sS'often'
p3419
I0
sS'some'
p3420
I7
sS'be'
p3421
I14
sS'by'
p3422
I7
sS'long'
p3423
I3
sS'sections'
p3424
I0
sS'boys'
p3425
I2
sS'prepared'
p3426
I0
sS'young'
p3427
I1
sS'great'
p3428
I2
sS'from'
p3429
I23
sS'few'
p3430
I1
sS'this'
p3431
I6
sS'of'
p3432
I78
sS'doing'
p3433
I2
sS'our'
p3434
I3
sS'out'
p3435
I5
sS'could'
p3436
I19
sS'their'
p3437
I3
sS'which'
p3438
I2
sS'who'
p3439
I1
sS'areas'
p3440
I7
sS'af'
p3441
I39
sS'almost'
p3442
I2
sS'off'
p3443
I2
sS'well'
p3444
I1
sS'thought'
p3445
I1
sS'point'
p3446
I14
sS'know'
p3447
I8
sS'like'
p3448
I2
sS'because'
p3449
I1
sS'although'
p3450
I0
sS'about'
p3451
I1
sS'much'
p3452
I1
sS'but'
p3453
I13
sS'made'
p3454
I1
sS'cells'
p3455
I0
sS'other'
p3456
I6
sS'friends'
p3457
I0
ssS'threw'
p3458
(dp3459
S'all'
p3460
I1
sg2509
I0
sg2510
I0
sS'with'
p3461
I1
sg2514
I0
sS'to'
p3462
I3
sS'window'
p3463
I1
sS'them'
p3464
I1
sS'his'
p3465
I8
sS'they'
p3466
I1
sg2526
I0
sS'him'
p3467
I3
sS'down'
p3468
I2
sS'she'
p3469
I3
sg2534
I0
sg2535
I0
sg2544
I0
sS'on'
p3470
I1
sS'of'
p3471
I1
sg2549
I0
sg2550
I0
sS'from'
p3472
I1
sS'her'
p3473
I1
sg2513
I0
sg2517
I0
sS'was'
p3474
I2
sS'door'
p3475
I1
sg2522
I0
sg3294
I0
sS'but'
p3476
I1
sS'he'
p3477
I5
sS'this'
p3478
I1
sS'up'
p3479
I3
sg2533
I0
sS'at'
p3480
I1
sS'and'
p3481
I16
sg2537
I0
sS'it'
p3482
I6
sg2539
I0
sg3297
I0
sS'in'
p3483
I3
sg3304
I0
sg2545
I0
sS'the'
p3484
I19
sg6
I6
sg1256
I2
ssS'week'
p3485
(dp3486
S'to'
p3487
I12
sS'during'
p3488
I11
sS'for'
p3489
I18
sS'last'
p3490
I14
sS'of'
p3491
I27
sS'one'
p3492
I11
sS'and'
p3493
I13
sS'in'
p3494
I19
sg6
I51
sS'the'
p3495
I55
ssS'then'
p3496
(dp3497
S'ever'
p3498
I1
sS'must'
p3499
I9
sS'worse'
p3500
I1
sg2556
I0
sS'first'
p3501
I13
sS'before'
p3502
I2
sS'better'
p3503
I2
sS'them'
p3504
I21
sS'they'
p3505
I16
sS'good'
p3506
I1
sS'each'
p3507
I7
sS'went'
p3508
I11
sS'took'
p3509
I7
sS'do'
p3510
I7
sS'said'
p3511
I19
sS'we'
p3512
I22
sS'never'
p3513
I1
sS'been'
p3514
I6
sS'much'
p3515
I2
sS'is'
p3516
I44
sS'in'
p3517
I49
sS'had'
p3518
I18
sS'has'
p3519
I4
sg2574
I0
sS'right'
p3520
I10
sS'people'
p3521
I3
sS'for'
p3522
I35
sS'slightly'
p3523
I2
sS'down'
p3524
I11
sS'ten'
p3525
I1
sS'longer'
p3526
I2
sS'time'
p3527
I4
sS'did'
p3528
I6
sS'may'
p3529
I4
sS'man'
p3530
I2
sS'years'
p3531
I3
sS'half'
p3532
I1
sS'not'
p3533
I13
sS'now'
p3534
I12
sS'she'
p3535
I24
sg2588
I0
sS'one'
p3536
I11
sS'little'
p3537
I4
sS'and'
p3538
I282
sS'any'
p3539
I4
sg2592
I11
sg2593
I0
sS'no'
p3540
I3
sS'around'
p3541
I8
sS'of'
p3542
I81
sS'or'
p3543
I6
sS'her'
p3544
I22
sS'an'
p3545
I15
sS'far'
p3546
I1
sS'what'
p3547
I17
sS'two'
p3548
I8
sS'more'
p3549
I7
sS'rather'
p3550
I1
sS'through'
p3551
I10
sS'its'
p3552
I1
sS'since'
p3553
I8
sS'hundred'
p3554
I1
sS'most'
p3555
I2
sS'nothing'
p3556
I2
sS'him'
p3557
I16
sS'are'
p3558
I14
sS'became'
p3559
I9
sS'else'
p3560
I1
sg2619
I0
sS'lower'
p3561
I1
sS'back'
p3562
I9
sS'be'
p3563
I26
sS'anything'
p3564
I2
sS'up'
p3565
I15
sg2625
I0
sS'this'
p3566
I19
sS'something'
p3567
I1
sg2628
I0
sS'our'
p3568
I2
sS'out'
p3569
I14
sS'their'
p3570
I11
sS'have'
p3571
I11
sg2600
I0
sS'will'
p3572
I9
sS'off'
p3573
I11
sg2638
I0
sg2639
I0
sS'because'
p3574
I3
sS'about'
p3575
I6
sS'but'
p3576
I27
sS'other'
p3577
I5
ssS'begin'
p3578
(dp3579
g121
I0
sS'to'
p3580
I36
sS'they'
p3581
I2
sS'not'
p3582
I2
sg115
I0
sg137
I0
sS'for'
p3583
I1
sS'by'
p3584
I4
sS'on'
p3585
I1
sS'of'
p3586
I4
sg127
I0
sg128
I0
sg102
I0
sg129
I0
sS'their'
p3587
I2
sS'there'
p3588
I2
sS'was'
p3589
I1
sS'that'
p3590
I5
sS'about'
p3591
I1
sS'with'
p3592
I7
sS'he'
p3593
I2
sg114
I0
sS'this'
p3594
I2
sg109
I0
sS'and'
p3595
I10
sS'is'
p3596
I2
sg117
I0
sS'an'
p3597
I2
sS'his'
p3598
I1
sS'at'
p3599
I3
sS'in'
p3600
I3
sS'as'
p3601
I2
sS'which'
p3602
I2
sS'who'
p3603
I3
sg6
I5
sg119
I0
sg104
I0
sS'the'
p3604
I18
ssS'buy'
p3605
(dp3606
S'all'
p3607
I0
sS'less'
p3608
I0
sS'being'
p3609
I0
sS'money'
p3610
I1
sS'over'
p3611
I0
sS'supported'
p3612
I0
sS'years'
p3613
I0
sS'produced'
p3614
I0
sS'held'
p3615
I0
sS'still'
p3616
I0
sS'its'
p3617
I2
sS'now'
p3618
I0
sS'had'
p3619
I0
sS'him'
p3620
I1
sS'to'
p3621
I31
sS'only'
p3622
I0
sS'program'
p3623
I0
sS'board'
p3624
I0
sS'caused'
p3625
I0
sS'covered'
p3626
I0
sS'has'
p3627
I0
sS'local'
p3628
I0
sS'do'
p3629
I2
sS'them'
p3630
I1
sS'his'
p3631
I4
sS'means'
p3632
I0
sS'they'
p3633
I2
sS'not'
p3634
I2
sS'taking'
p3635
I0
sS'accepted'
p3636
I0
sS'day'
p3637
I1
sS'name'
p3638
I1
sS'brought'
p3639
I0
sS'several'
p3640
I0
sS'like'
p3641
I1
sS'method'
p3642
I0
sS'these'
p3643
I0
sS'she'
p3644
I1
sS'each'
p3645
I0
sS'accompanied'
p3646
I0
sS'side'
p3647
I0
sS'secretary'
p3648
I0
sS'set'
p3649
I0
sS'force'
p3650
I0
sS'methods'
p3651
I0
sS'people'
p3652
I0
sS'national'
p3653
I0
sS'some'
p3654
I1
sS'are'
p3655
I0
sS'year'
p3656
I0
sS'our'
p3657
I0
sS'operation'
p3658
I0
sS'out'
p3659
I0
sS'even'
p3660
I0
sS'provided'
p3661
I0
sS'what'
p3662
I0
sS'for'
p3663
I4
sS'federal'
p3664
I0
sS'god'
p3665
I0
sS'away'
p3666
I0
sS'surrounded'
p3667
I0
sS'state'
p3668
I1
sS'new'
p3669
I0
sS'public'
p3670
I0
sS'can'
p3671
I1
sS'body'
p3672
I0
sS'be'
p3673
I0
sS'we'
p3674
I0
sS'men'
p3675
I0
sS'use'
p3676
I0
sS'members'
p3677
I0
sS'alone'
p3678
I1
sS'described'
p3679
I0
sS'obtained'
p3680
I0
sS'both'
p3681
I1
sS'about'
p3682
I2
sS'would'
p3683
I3
sS'created'
p3684
I0
sS'of'
p3685
I3
sS'could'
p3686
I2
sS'accomplished'
p3687
I0
sS'action'
p3688
I0
sS'or'
p3689
I5
sS'first'
p3690
I0
sS'own'
p3691
I0
sS'followed'
p3692
I0
sS'into'
p3693
I0
sS'number'
p3694
I0
sS'one'
p3695
I2
sS'down'
p3696
I0
sS'represented'
p3697
I0
sS'done'
p3698
I0
sS'long'
p3699
I0
sS'another'
p3700
I0
sS'given'
p3701
I0
sS'law'
p3702
I0
sS'from'
p3703
I1
sS'her'
p3704
I2
sS'af'
p3705
I0
sS'two'
p3706
I2
sS'been'
p3707
I0
sS'their'
p3708
I0
sS'much'
p3709
I0
sS'way'
p3710
I0
sS'taken'
p3711
I0
sS'john'
p3712
I0
sS'war'
p3713
I0
sS'more'
p3714
I2
sS'himself'
p3715
I1
sS'that'
p3716
I3
sS'mr'
p3717
I0
sS'under'
p3718
I0
sS'great'
p3719
I0
sS'but'
p3720
I0
sS'an'
p3721
I0
sS'with'
p3722
I1
sS'than'
p3723
I3
sS'those'
p3724
I0
sS'he'
p3725
I3
sS'me'
p3726
I1
sS'made'
p3727
I0
sS'mrs'
p3728
I1
sS'this'
p3729
I1
sS'was'
p3730
I3
sS'work'
p3731
I0
sS'up'
p3732
I0
sS'us'
p3733
I0
sS'will'
p3734
I1
sS'determined'
p3735
I0
sS'replaced'
p3736
I0
sS'were'
p3737
I1
sS'my'
p3738
I0
sS'called'
p3739
I0
sS'and'
p3740
I6
sS'have'
p3741
I1
sS'then'
p3742
I0
sS'is'
p3743
I2
sS'it'
p3744
I3
sS'general'
p3745
I0
sS'states'
p3746
I0
sS'as'
p3747
I0
sS'at'
p3748
I0
sS'in'
p3749
I2
sS'occupied'
p3750
I0
sS'any'
p3751
I0
sS'if'
p3752
I1
sS'united'
p3753
I0
sS'no'
p3754
I0
sS'little'
p3755
I0
sS'government'
p3756
I0
sS'when'
p3757
I1
sS'american'
p3758
I0
sS'same'
p3759
I0
sS'also'
p3760
I0
sS'other'
p3761
I0
sS'which'
p3762
I1
sS'you'
p3763
I5
sS'many'
p3764
I0
sS'either'
p3765
I0
sS'used'
p3766
I0
sS'may'
p3767
I2
sS'who'
p3768
I0
sS'paid'
p3769
I0
sS'most'
p3770
I0
sS'sponsored'
p3771
I0
sS'such'
p3772
I0
sS'on'
p3773
I2
sS'man'
p3774
I0
sg6
I11
sS'off'
p3775
I0
sg1256
I1
sS'required'
p3776
I0
sS'well'
p3777
I0
sS'so'
p3778
I0
sS'time'
p3779
I0
sS'the'
p3780
I4
sS'fact'
p3781
I0
ssS'led'
p3782
(dp3783
S'him'
p3784
I9
sS'of'
p3785
I6
sS'that'
p3786
I18
sS'as'
p3787
I4
sS'which'
p3788
I7
ssS'passed'
p3789
(dp3790
S'years'
p3791
I2
sS'through'
p3792
I19
sS'had'
p3793
I17
sS'to'
p3794
I9
sS'has'
p3795
I7
sS'they'
p3796
I12
sS'during'
p3797
I0
sS'for'
p3798
I0
sS'on'
p3799
I13
sS'of'
p3800
I6
sS'or'
p3801
I0
sS'into'
p3802
I3
sS'her'
p3803
I3
sS'he'
p3804
I14
sS'in'
p3805
I7
sS'the'
p3806
I47
ssS'presence'
p3807
(dp3808
g2646
I10
sS'of'
p3809
I40
sS'and'
p3810
I7
sS'in'
p3811
I17
sS'the'
p3812
I43
ssS'knew'
p3813
(dp3814
S'to'
p3815
I17
sS'and'
p3816
I44
sS'what'
p3817
I26
sS'from'
p3818
I1
sS'would'
p3819
I15
sS'this'
p3820
I9
sS'how'
p3821
I16
sg6
I12
sS'its'
p3822
I2
sS'they'
p3823
I18
sS'each'
p3824
I1
sg3272
I0
sS'that'
p3825
I67
sg3281
I0
sS'which'
p3826
I2
sS'only'
p3827
I10
sS'his'
p3828
I6
sS'she'
p3829
I38
sS'are'
p3830
I1
sS'we'
p3831
I10
sg3245
I15
sS'these'
p3832
I2
sS'will'
p3833
I1
sS'is'
p3834
I1
sS'it'
p3835
I39
sS'in'
p3836
I17
sS'who'
p3837
I16
sg1256
I65
sS'well'
p3838
I8
sS'the'
p3839
I61
sg3255
I0
sg3256
I0
sS'some'
p3840
I2
sS'for'
p3841
I7
sS'be'
p3842
I7
sS'by'
p3843
I2
sS'on'
p3844
I2
sS'of'
p3845
I23
sS'or'
p3846
I4
sS'into'
p3847
I1
sS'her'
p3848
I8
sS'but'
p3849
I27
sS'with'
p3850
I2
sS'he'
p3851
I125
sS'as'
p3852
I13
sS'at'
p3853
I3
sS'you'
p3854
I11
ssS'weak'
p3855
(dp3856
S'to'
p3857
I3
sg3488
I0
sS'for'
p3858
I4
sg3490
I0
sS'of'
p3859
I4
sg3492
I0
sS'and'
p3860
I6
sS'in'
p3861
I2
sg6
I4
sS'the'
p3862
I7
ssS'effect'
p3863
(dp3864
S'to'
p3865
I35
sg6
I15
sS'that'
p3866
I9
sS'have'
p3867
I13
sS'the'
p3868
I102
sS'and'
p3869
I20
sS'an'
p3870
I12
sS'is'
p3871
I14
sS'in'
p3872
I18
sS'on'
p3873
I24
sS'of'
p3874
I46
ssS'bear'
p3875
(dp3876
S'to'
p3877
I18
ssS'site'
p3878
(dp3879
g3316
I1
sg3313
I12
sg3315
I2
sg3312
I4
sg3314
I5
sg6
I16
ssS'rise'
p3880
(dp3881
S'to'
p3882
I30
sS'of'
p3883
I12
sS'and'
p3884
I13
sS'in'
p3885
I16
sg6
I15
sS'the'
p3886
I31
ssS'plane'
p3887
(dp3888
S'to'
p3889
I8
sS'of'
p3890
I27
sS'and'
p3891
I12
sS'in'
p3892
I13
sg6
I16
sS'the'
p3893
I65
ssS'hear'
p3894
(dp3895
S'all'
p3896
I0
sS'had'
p3897
I1
sS'to'
p3898
I36
sS'his'
p3899
I3
sS'they'
p3900
I4
sS'not'
p3901
I6
sS'now'
p3902
I1
sS'she'
p3903
I3
sS'right'
p3904
I0
sS'some'
p3905
I3
sS'are'
p3906
I0
sS'out'
p3907
I1
sS'what'
p3908
I3
sS'for'
p3909
I3
sS'be'
p3910
I0
sS'we'
p3911
I8
sS'come'
p3912
I1
sS'on'
p3913
I0
sS'her'
p3914
I2
sS'of'
p3915
I12
sS'could'
p3916
I21
sS'one'
p3917
I6
sS'from'
p3918
I5
sS'there'
p3919
I0
sS'been'
p3920
I0
sS'was'
p3921
I7
sS'that'
p3922
I5
sS'with'
p3923
I3
sS'me'
p3924
I3
sS'this'
p3925
I2
sS'can'
p3926
I7
sS'and'
p3927
I21
sS'is'
p3928
I2
sS'it'
p3929
I8
sS'as'
p3930
I1
sS'have'
p3931
I0
sS'in'
p3932
I6
sS'no'
p3933
I1
sS'stay'
p3934
I0
sS'but'
p3935
I4
sg6
I10
sg1256
I15
sS'the'
p3936
I33
ssS'here'
p3937
(dp3938
g3896
I10
sS'to'
p3939
I63
sS'what'
p3940
I9
sS'from'
p3941
I16
sS'me'
p3942
I11
sS'this'
p3943
I11
sS'can'
p3944
I3
sg6
I44
sS'they'
p3945
I10
sS'not'
p3946
I15
sS'now'
p3947
I13
sS'out'
p3948
I26
sS'could'
p3949
I5
sS'one'
p3950
I11
sS'that'
p3951
I27
sS'and'
p3952
I57
sg3931
I17
sS'the'
p3953
I94
sS'his'
p3954
I9
sS'she'
p3955
I7
sg3906
I24
sS'we'
p3956
I20
sS'come'
p3957
I12
sg3920
I10
sS'is'
p3958
I45
sS'it'
p3959
I28
sS'in'
p3960
I44
sg1256
I28
sS'had'
p3961
I9
sS'some'
p3962
I8
sS'for'
p3963
I23
sg3910
I26
sg3913
I17
sS'of'
p3964
I50
sg3904
I10
sS'her'
p3965
I9
sg3919
I14
sS'was'
p3966
I36
sS'but'
p3967
I20
sS'with'
p3968
I18
sS'as'
p3969
I10
sS'no'
p3970
I13
sg3934
I12
ssS'rain'
p3971
(dp3972
S'to'
p3973
I7
sS'of'
p3974
I11
sS'and'
p3975
I12
sS'in'
p3976
I8
sg6
I9
sg2815
I33
ssS'affect'
p3977
(dp3978
S'to'
p3979
I5
sS'on'
p3980
I1
sS'of'
p3981
I8
sS'that'
p3982
I1
sS'and'
p3983
I2
sg3871
I0
sg3870
I0
sg3867
I0
sS'in'
p3984
I1
sg6
I1
sS'the'
p3985
I16
ssS'hole'
p3986
(dp3987
S'to'
p3988
I6
sS'his'
p3989
I1
sS'world'
p3990
I0
sS'for'
p3991
I3
sS'on'
p3992
I2
sS'of'
p3993
I2
sS'was'
p3994
I3
sS'that'
p3995
I0
sS'with'
p3996
I2
sS'and'
p3997
I1
sS'it'
p3998
I2
sS'as'
p3999
I2
sS'in'
p4000
I9
sg6
I15
sS'the'
p4001
I16
ssS'quite'
p4002
(dp4003
S'to'
p4004
I20
sg6
I36
sS'not'
p4005
I18
sS'that'
p4006
I26
sS'his'
p4007
I10
sS'are'
p4008
I11
sS'and'
p4009
I38
sS'is'
p4010
I35
sS'it'
p4011
I25
sS'different'
p4012
I11
sS'the'
p4013
I37
sS'for'
p4014
I8
sS'be'
p4015
I9
sS'of'
p4016
I22
sS'was'
p4017
I14
sS'as'
p4018
I14
ssS'by'
p4019
(dp4020
g3639
I15
sg3675
I16
sg3709
I11
sg3619
I32
sg3627
I35
sg3652
I23
sS'for'
p4021
I74
sg3779
I35
sS'alone'
p4022
I9
sg3687
I10
sg3772
I30
sg3778
I32
sg3613
I13
sS'one'
p4023
I61
sg3664
I11
sg3764
I16
sg3609
I41
sS'her'
p4024
I41
sS'with'
p4025
I68
sg3705
I47
sg3721
I76
sg3747
I100
sg3625
I19
sS'to'
p4026
I267
sg3642
I14
sg3688
I20
sS'more'
p4027
I16
sg3746
I23
sS'its'
p4028
I43
sg3658
I10
sg3694
I17
sg3735
I25
sg3760
I17
sg3649
I11
sg3651
I12
sg3673
I229
sg3693
I24
sg3732
I32
sg3733
I12
sg3719
I11
sS'this'
p4029
I78
sg3614
I16
sg3646
I18
sS'could'
p4030
I26
sg3781
I14
sg3632
I52
sg3775
I12
sg3608
I12
sg3756
I17
sg3680
I15
sg3731
I16
sg3702
I12
sg3742
I14
sS'them'
p4031
I32
sS'they'
p4032
I45
sg3684
I11
sg3700
I10
sg3712
I12
sS'do'
p4033
I13
sg3648
I10
sg3666
I11
sg3674
I28
sS'the'
p4034
I1459
sg3624
I11
sg3710
I21
sS'was'
p4035
I278
sg3713
I11
sS'can'
p4036
I39
sg3616
I11
sS'not'
p4037
I81
sg3618
I27
sg3656
I12
sS'that'
p4038
I110
sS'than'
p4039
I22
sS'mrs'
p4040
I10
sg3622
I48
sg3643
I22
sS'you'
p4041
I17
sg3667
I10
sg3711
I16
sg6
I485
sg3615
I14
sg3758
I12
sg3771
I13
sS'both'
p4042
I11
sg3679
I12
sg3766
I21
sS'some'
p4043
I31
sS'himself'
p4044
I15
sg3776
I10
sS'she'
p4045
I16
sS'state'
p4046
I14
sg1256
I34
sg3777
I10
sS'he'
p4047
I73
sg3650
I11
sg3660
I11
sg3669
I33
sg3647
I19
sS'is'
p4048
I270
sS'it'
p4049
I99
sS'in'
p4050
I213
sS'if'
p4051
I18
sg3696
I17
sS'may'
p4052
I25
sg3774
I18
sg3690
I15
sg3699
I11
sg3755
I12
sS'were'
p4053
I119
sg3750
I10
sg3769
I12
sg3724
I28
sg3759
I10
sS'money'
p4054
I10
sg3765
I13
sg3745
I13
sg3670
I16
sS'two'
p4055
I31
sg3677
I14
sg3698
I15
sg3770
I12
sg3736
I13
sg3676
I16
sS'from'
p4056
I59
sg3672
I10
sS'day'
p4057
I10
sS'have'
p4058
I52
sg3612
I17
sg3653
I11
sg3635
I11
sg3748
I43
sS'like'
p4059
I9
sS'about'
p4060
I12
sg3720
I41
sg3718
I10
sg3697
I13
sS'would'
p4061
I26
sS'me'
p4062
I18
sg3717
I13
sg3738
I11
sg3611
I13
sg3645
I15
sg3665
I12
sg3707
I112
sg3640
I14
sg3692
I32
sg3754
I25
sS'when'
p4063
I20
sS'name'
p4064
I15
sg3701
I29
sS'and'
p4065
I437
sg3751
I29
sg3636
I10
sg3661
I17
sS'on'
p4066
I64
sS'of'
p4067
I568
sS'or'
p4068
I85
sg3607
I35
sg3623
I10
sg3662
I25
sS'his'
p4069
I109
sS'him'
p4070
I46
sg3655
I130
sg3739
I11
sg3753
I15
sg3626
I13
sg3657
I17
sg3659
I33
sg3708
I52
sS'which'
p4071
I54
sg3768
I57
sg3628
I12
sS'will'
p4072
I20
sg3691
I18
sg3727
I61
sg3761
I32
ssS'me'
p4073
(dp4074
S'saying'
p4075
I0
sS'all'
p4076
I12
sS'show'
p4077
I2
sS'go'
p4078
I13
sS'fear'
p4079
I1
sS'hate'
p4080
I4
sS'find'
p4081
I4
sS'should'
p4082
I6
sS'answered'
p4083
I0
sS'only'
p4084
I5
sS'hope'
p4085
I1
sS'meant'
p4086
I3
sS'do'
p4087
I17
sS'his'
p4088
I12
sS'get'
p4089
I8
sS'very'
p4090
I7
sS'stop'
p4091
I3
sS'cannot'
p4092
I1
sS'every'
p4093
I3
sS'him'
p4094
I12
sS'did'
p4095
I8
sS'die'
p4096
I2
sS'try'
p4097
I2
sS'these'
p4098
I1
sS'though'
p4099
I2
sS'havent'
p4100
I0
sS'where'
p4101
I4
sS'wrote'
p4102
I2
sS'set'
p4103
I4
sS'see'
p4104
I12
sS'college'
p4105
I0
sS'are'
p4106
I4
sS'wonder'
p4107
I2
sS'even'
p4108
I4
sS'what'
p4109
I15
sS'said'
p4110
I33
sS'away'
p4111
I4
sS'wouldnt'
p4112
I7
sS'behind'
p4113
I9
sS'new'
p4114
I0
sS'learned'
p4115
I0
sS'ever'
p4116
I2
sS'we'
p4117
I4
sS'never'
p4118
I7
sS'however'
p4119
I1
sS'here'
p4120
I11
sS'let'
p4121
I42
sS'come'
p4122
I12
sS'both'
p4123
I3
sS'last'
p4124
I2
sS'many'
p4125
I3
sS'ill'
p4126
I2
sS'assure'
p4127
I1
sS'became'
p4128
I2
sS'usually'
p4129
I1
sS'asked'
p4130
I11
sS'thats'
p4131
I3
sS'liked'
p4132
I1
sS'love'
p4133
I4
sS'suddenly'
p4134
I3
sS'seems'
p4135
I19
sS'ask'
p4136
I6
sS'speak'
p4137
I1
sS'would'
p4138
I23
sS'two'
p4139
I3
sS'been'
p4140
I5
sS'next'
p4141
I4
sS'few'
p4142
I2
sS'live'
p4143
I1
sS'much'
p4144
I2
sS'call'
p4145
I5
sS'until'
p4146
I1
sS'more'
p4147
I12
sS'mind'
p4148
I1
sS'aware'
p4149
I0
sS'understand'
p4150
I1
sS'hold'
p4151
I2
sS'must'
p4152
I7
sS'me'
p4153
I18
sS'myself'
p4154
I1
sS'look'
p4155
I4
sS'this'
p4156
I24
sS'work'
p4157
I2
sS'as'
p4158
I30
sS'will'
p4159
I11
sS'while'
p4160
I0
sS'suppose'
p4161
I4
sS'can'
p4162
I8
sS'mr'
p4163
I3
sS'my'
p4164
I28
sS'ive'
p4165
I1
sS'is'
p4166
I21
sS'it'
p4167
I76
sS'heard'
p4168
I1
sS'cant'
p4169
I3
sS'im'
p4170
I2
sS'something'
p4171
I5
sS'want'
p4172
I10
sS'in'
p4173
I53
sS'if'
p4174
I16
sS'turn'
p4175
I0
sS'make'
p4176
I8
sS'same'
p4177
I3
sS'write'
p4178
I4
sS'how'
p4179
I7
sS'used'
p4180
I4
sS'tried'
p4181
I0
sS'may'
p4182
I1
sS'after'
p4183
I5
sg6
I87
sS'off'
p4184
I0
sS'remember'
p4185
I2
sg1256
I72
sS'maybe'
p4186
I2
sS'youre'
p4187
I1
sS'well'
p4188
I3
sS'or'
p4189
I4
sS'thought'
p4190
I3
sS'so'
p4191
I11
sS'the'
p4192
I137
sS'talk'
p4193
I3
sS'left'
p4194
I2
sS'replied'
p4195
I1
sS'help'
p4196
I16
sS'just'
p4197
I17
sS'being'
p4198
I2
sS'over'
p4199
I9
sS'years'
p4200
I6
sS'course'
p4201
I0
sS'through'
p4202
I0
sS'yes'
p4203
I1
sS'still'
p4204
I2
sS'its'
p4205
I6
sS'before'
p4206
I7
sS'hated'
p4207
I0
sS'had'
p4208
I31
sS'better'
p4209
I1
sS'might'
p4210
I2
sS'gave'
p4211
I20
sS'then'
p4212
I11
sS'them'
p4213
I9
sS'good'
p4214
I5
sS'around'
p4215
I9
sS'read'
p4216
I1
sS'know'
p4217
I5
sS'not'
p4218
I28
sS'now'
p4219
I9
sS'day'
p4220
I5
sS'wont'
p4221
I2
sS'like'
p4222
I6
sS'always'
p4223
I5
sS'stopped'
p4224
I2
sS'night'
p4225
I4
sS'found'
p4226
I1
sS'went'
p4227
I6
sS'mean'
p4228
I1
sS'because'
p4229
I6
sS'often'
p4230
I0
sS'people'
p4231
I4
sS'some'
p4232
I6
sS'back'
p4233
I8
sS'out'
p4234
I15
sS'wondered'
p4235
I0
sS'god'
p4236
I4
sS'since'
p4237
I2
sS'looking'
p4238
I7
sS'am'
p4239
I6
sS'got'
p4240
I2
sS'be'
p4241
I13
sS'felt'
p4242
I2
sS'remembered'
p4243
I0
sS'little'
p4244
I7
sS'although'
p4245
I0
sS'put'
p4246
I3
sS'wanted'
p4247
I8
sS'care'
p4248
I0
sS'on'
p4249
I29
sS'anything'
p4250
I4
sS'oh'
p4251
I1
sS'of'
p4252
I45
sS'could'
p4253
I12
sS'keep'
p4254
I1
sS'thing'
p4255
I3
sS'think'
p4256
I3
sS'first'
p4257
I6
sS'dont'
p4258
I17
sS'feel'
p4259
I6
sS'into'
p4260
I4
sS'one'
p4261
I12
sS'right'
p4262
I5
sS'done'
p4263
I2
sS'long'
p4264
I6
sS'another'
p4265
I1
sS'couldnt'
p4266
I1
sS'guess'
p4267
I1
sS'her'
p4268
I17
sS'whom'
p4269
I0
sS'there'
p4270
I13
sS'least'
p4271
I3
sS'hed'
p4272
I7
sS'their'
p4273
I4
sS'doubt'
p4274
I0
sS'too'
p4275
I6
sS'way'
p4276
I5
sS'was'
p4277
I42
sS'that'
p4278
I76
sS'but'
p4279
I35
sS'hear'
p4280
I5
sS'hadnt'
p4281
I1
sS'didnt'
p4282
I5
sS'believe'
p4283
I4
sS'made'
p4284
I13
sS'wish'
p4285
I1
sS'up'
p4286
I22
sS'were'
p4287
I9
sS'toward'
p4288
I10
sS'called'
p4289
I4
sS'and'
p4290
I106
sS'sometimes'
p4291
I1
sS'wasnt'
p4292
I0
sS'turned'
p4293
I4
sS'an'
p4294
I11
sS'say'
p4295
I4
sS'at'
p4296
I33
sS'have'
p4297
I21
sS'seen'
p4298
I3
sS'saw'
p4299
I3
sS'any'
p4300
I3
sS'sat'
p4301
I4
sS'again'
p4302
I1
sS'no'
p4303
I7
sS'when'
p4304
I16
sS'also'
p4305
I1
sS'other'
p4306
I1
sS'which'
p4307
I15
sS'you'
p4308
I83
sS'really'
p4309
I1
sS'sure'
p4310
I2
sS'shall'
p4311
I1
sS'knew'
p4312
I1
sS'most'
p4313
I2
sS'nothing'
p4314
I6
sS'why'
p4315
I8
sS'wife'
p4316
I1
sS'later'
p4317
I2
sS'walked'
p4318
I0
sS'looked'
p4319
I10
sS'time'
p4320
I7
sS'far'
p4321
I4
sS'came'
p4322
I12
sS'once'
p4323
I3
ssS'past'
p4324
(dp4325
S'to'
p4326
I23
sS'on'
p4327
I1
sS'had'
p4328
I3
sS'years'
p4329
I17
sS'through'
p4330
I4
sS'they'
p4331
I1
sg3797
I13
sS'in'
p4332
I47
sS'the'
p4333
I159
sS'has'
p4334
I4
sg3798
I13
sS'of'
p4335
I49
sg3801
I12
sS'into'
p4336
I8
sS'her'
p4337
I10
sS'he'
p4338
I8
ssS'scene'
p4339
(dp4340
S'before'
p4341
I2
sg1569
I0
sS'to'
p4342
I9
sS'has'
p4343
I1
sg1560
I0
sS'him'
p4344
I2
sg1556
I0
sg1571
I0
sg1565
I0
sg1557
I0
sS'on'
p4345
I5
sS'from'
p4346
I4
sS'that'
p4347
I2
sS'he'
p4348
I1
sg1566
I0
sS'and'
p4349
I4
sS'it'
p4350
I2
sS'as'
p4351
I5
sg1563
I0
sS'in'
p4352
I14
sg1256
I0
ssS'meat'
p4353
(dp4354
S'to'
p4355
I7
sS'of'
p4356
I6
sS'the'
p4357
I12
ssg1256
(dp4358
S'hate'
p4359
I15
sS'every'
p4360
I10
sS'even'
p4361
I25
sg4114
I11
sS'ever'
p4362
I22
sS'never'
p4363
I65
sS'here'
p4364
I31
sS'would'
p4365
I98
sS'until'
p4366
I12
sg4149
I11
sS'hold'
p4367
I9
sS'must'
p4368
I37
sS'work'
p4369
I19
sS'my'
p4370
I144
sS'want'
p4371
I70
sg4175
I12
sS'how'
p4372
I36
sS'over'
p4373
I23
sS'before'
p4374
I25
sS'better'
p4375
I14
sS'then'
p4376
I42
sS'them'
p4377
I55
sS'went'
p4378
I48
sS'mean'
p4379
I47
sS'god'
p4380
I9
sS'got'
p4381
I43
sS'wanted'
p4382
I22
sS'another'
p4383
I13
sS'too'
p4384
I27
sS'hadnt'
p4385
I11
sS'mind'
p4386
I11
sS'seen'
p4387
I18
sS'shall'
p4388
I31
sS'came'
p4389
I33
sg4075
I13
sS'just'
p4390
I54
sS'do'
p4391
I112
sS'stop'
p4392
I7
sS'said'
p4393
I168
sS'away'
p4394
I11
sS'we'
p4395
I34
sS'however'
p4396
I23
sS'ill'
p4397
I10
sS'asked'
p4398
I44
sS'had'
p4399
I230
sS'speak'
p4400
I13
sS'been'
p4401
I54
sS'much'
p4402
I19
sS'suppose'
p4403
I34
sS'is'
p4404
I62
sS'it'
p4405
I205
sS'cant'
p4406
I48
sS'im'
p4407
I9
sS'in'
p4408
I195
sS'if'
p4409
I112
sS'make'
p4410
I28
sS'youre'
p4411
I11
sS'the'
p4412
I591
sS'left'
p4413
I13
sS'yes'
p4414
I17
sS'gave'
p4415
I7
sS'night'
p4416
I7
sS'right'
p4417
I19
sS'people'
p4418
I11
sS'way'
p4419
I10
sS'call'
p4420
I15
sS'was'
p4421
I326
sS'only'
p4422
I43
sS'hear'
p4423
I16
sS'no'
p4424
I75
sS'felt'
p4425
I59
sS'time'
p4426
I44
sg4083
I10
sS'me'
p4427
I64
sS'did'
p4428
I69
sS'die'
p4429
I9
sS'mr'
p4430
I9
sS'usually'
p4431
I9
sS'love'
p4432
I16
sS'live'
p4433
I13
sS'anything'
p4434
I13
sS'can'
p4435
I88
sS'heard'
p4436
I33
sS'write'
p4437
I21
sS'may'
p4438
I22
sS'remember'
p4439
I32
sS'maybe'
p4440
I16
sS'cannot'
p4441
I21
sS'so'
p4442
I82
sS'talk'
p4443
I12
sS'years'
p4444
I21
sg4201
I19
sS'still'
p4445
I24
sS'not'
p4446
I146
sS'now'
p4447
I56
sS'wont'
p4448
I14
sS'looking'
p4449
I3
sS'after'
p4450
I25
sg4248
I12
sS'thing'
p4451
I17
sS'think'
p4452
I138
sS'first'
p4453
I34
sS'one'
p4454
I51
sS'little'
p4455
I13
sS'that'
p4456
I315
sS'were'
p4457
I38
sS'and'
p4458
I366
sS'turned'
p4459
I11
sS'say'
p4460
I62
sS'saw'
p4461
I69
sS'any'
p4462
I18
sS'sat'
p4463
I11
sS'wonder'
p4464
I9
sS'sure'
p4465
I30
sS'knew'
p4466
I60
sS'later'
p4467
I11
sS'show'
p4468
I9
sS'get'
p4469
I51
sS'where'
p4470
I19
sg4105
I10
sS'its'
p4471
I20
sS'come'
p4472
I25
sS'many'
p4473
I13
sS'myself'
p4474
I29
sS'these'
p4475
I16
sS'ive'
p4476
I9
sS'good'
p4477
I9
sS'same'
p4478
I8
sS'being'
p4479
I9
sS'when'
p4480
I125
sS'seems'
p4481
I1
sS'around'
p4482
I16
sS'on'
p4483
I70
sS'oh'
p4484
I14
sS'of'
p4485
I190
sS'or'
p4486
I22
sS'her'
p4487
I63
sS'there'
p4488
I33
sS'hed'
p4489
I3
sS'as'
p4490
I141
sS'at'
p4491
I103
sS'again'
p4492
I13
sS'wife'
p4493
I10
sS'all'
p4494
I53
sS'very'
p4495
I13
sS'what'
p4496
I121
sg4115
I12
sS'suddenly'
p4497
I7
sS'ask'
p4498
I17
sS'two'
p4499
I9
sS'more'
p4500
I32
sg4181
I12
sg6
I281
sS'replied'
p4501
I11
sS'help'
p4502
I7
sg4202
I10
sS'might'
p4503
I28
sS'always'
p4504
I22
sS'stopped'
p4505
I10
sS'really'
p4506
I13
sS'try'
p4507
I17
sg4235
I10
sS'since'
p4508
I18
sS'found'
p4509
I31
sS'put'
p4510
I23
sS'dont'
p4511
I157
sS'feel'
p4512
I32
sS'done'
p4513
I13
sS'guess'
p4514
I29
sS'least'
p4515
I9
sS'behind'
p4516
I5
sS'believe'
p4517
I43
sg1256
I201
sS'toward'
p4518
I4
sg4292
I17
sS'also'
p4519
I17
sS'most'
p4520
I15
sS'nothing'
p4521
I11
sS'sometimes'
p4522
I10
sS'find'
p4523
I18
sS'his'
p4524
I40
sS'him'
p4525
I125
sS'wrote'
p4526
I23
sS'set'
p4527
I14
sS'see'
p4528
I75
sS'are'
p4529
I13
sS'both'
p4530
I7
sS'last'
p4531
I14
sS'became'
p4532
I11
sS'liked'
p4533
I9
sg4269
I14
sS'look'
p4534
I16
sg4160
I22
sS'read'
p4535
I9
sS'day'
p4536
I15
sS'used'
p4537
I12
sg4207
I12
sg4230
I19
sS'some'
p4538
I23
sS'back'
p4539
I34
sS'though'
p4540
I12
sS'be'
p4541
I72
sg4243
I11
sS'wouldnt'
p4542
I27
sS'into'
p4543
I22
sS'long'
p4544
I16
sS'an'
p4545
I34
sS'up'
p4546
I47
sS'called'
p4547
I7
sg4318
I10
sS'far'
p4548
I10
sS'once'
p4549
I32
sS'go'
p4550
I24
sS'meant'
p4551
I10
sg4100
I18
sS'let'
p4552
I6
sS'thats'
p4553
I9
sS'next'
p4554
I7
sS'few'
p4555
I8
sg4274
I11
sS'this'
p4556
I90
sS'didnt'
p4557
I66
sS'something'
p4558
I9
sS'out'
p4559
I42
sS'could'
p4560
I93
sS'keep'
p4561
I15
sS'their'
p4562
I17
sS'have'
p4563
I275
sS'which'
p4564
I48
sS'why'
p4565
I38
sS'looked'
p4566
I24
sS'fear'
p4567
I10
sS'should'
p4568
I43
sS'hope'
p4569
I19
sS'assure'
p4570
I10
sS'am'
p4571
I179
sS'will'
p4572
I49
sg4184
I16
sS'well'
p4573
I42
sS'thought'
p4574
I76
sS'know'
p4575
I171
sS'you'
p4576
I246
sS'like'
p4577
I83
sS'because'
p4578
I18
sg4245
I11
sS'couldnt'
p4579
I23
sS'but'
p4580
I163
sS'made'
p4581
I28
sS'wish'
p4582
I37
sS'other'
p4583
I11
sS'understand'
p4584
I18
ssS'country'
p4585
(dp4586
S'to'
p4587
I29
sS'from'
p4588
I8
sS'this'
p4589
I47
sg6
I28
sg1321
I11
sS'that'
p4590
I14
sS'and'
p4591
I34
sS'the'
p4592
I144
sS'his'
p4593
I11
sg1330
I13
sS'in'
p4594
I80
sg1322
I14
sS'of'
p4595
I57
sS'or'
p4596
I3
sg1326
I10
ssS'later'
p4597
(dp4598
S'to'
p4599
I33
sg6
I53
sg2464
I29
sS'that'
p4600
I17
sS'were'
p4601
I10
sS'and'
p4602
I40
sg2466
I17
sS'she'
p4603
I10
sS'is'
p4604
I3
sg2481
I13
sS'in'
p4605
I38
sg1256
I12
sS'for'
p4606
I10
sS'be'
p4607
I16
sS'by'
p4608
I10
sS'on'
p4609
I20
sS'or'
p4610
I8
sS'was'
p4611
I21
sg2475
I10
sg2476
I21
sg2478
I11
sS'as'
p4612
I8
ssS'your'
p4613
(dp4614
g2759
I15
sS'to'
p4615
I129
sS'what'
p4616
I15
sg2775
I34
sg2787
I11
sg2791
I12
sS'this'
p4617
I10
sS'can'
p4618
I22
sg6
I36
sS'how'
p4619
I10
sg2765
I12
sg2768
I17
sS'dont'
p4620
I11
sS'one'
p4621
I8
sS'that'
p4622
I34
sS'and'
p4623
I107
sg2800
I26
sS'take'
p4624
I12
sg2764
I10
sg2766
I16
sg2769
I13
sS'are'
p4625
I17
sS'said'
p4626
I11
sg2785
I11
sS'going'
p4627
I2
sg2794
I30
sg2796
I50
sS'it'
p4628
I19
sS'in'
p4629
I84
sS'if'
p4630
I29
sg2803
I11
sg1256
I22
sS'the'
p4631
I59
sg2763
I12
sS'for'
p4632
I57
sS'be'
p4633
I21
sS'about'
p4634
I8
sS'of'
p4635
I106
sg2778
I21
sg2780
I26
sS'your'
p4636
I22
sS'was'
p4637
I11
sS'but'
p4638
I7
sS'with'
p4639
I26
sS'he'
p4640
I9
sS'up'
p4641
I11
sS'as'
p4642
I12
sg2799
I15
sS'not'
p4643
I17
sS'you'
p4644
I89
sg2807
I12
sS'time'
p4645
I13
ssS'quiet'
p4646
(dp4647
S'to'
p4648
I4
sS'his'
p4649
I4
sS'not'
p4650
I2
sS'are'
p4651
I1
sS'for'
p4652
I4
sS'be'
p4653
I2
sS'of'
p4654
I8
sS'was'
p4655
I6
sg6
I19
sg4006
I0
sS'and'
p4656
I16
sS'is'
p4657
I6
sS'it'
p4658
I3
sS'as'
p4659
I1
sg4012
I0
sS'the'
p4660
I18
ssS'fewer'
p4661
(dp4662
g75
I0
sS'less'
p4663
I2
sS'to'
p4664
I4
sg73
I0
sg76
I0
sS'are'
p4665
I3
sS'for'
p4666
I1
sS'be'
p4667
I2
sg92
I0
sS'of'
p4668
I2
sS'or'
p4669
I2
sS'there'
p4670
I3
sg84
I0
sg96
I0
sS'more'
p4671
I2
sS'that'
p4672
I1
sS'but'
p4673
I1
sS'with'
p4674
I1
sS'than'
p4675
I5
sS'were'
p4676
I1
sS'and'
p4677
I8
sS'is'
p4678
I1
sS'it'
p4679
I2
sg81
I0
sS'in'
p4680
I4
sS'no'
p4681
I1
sg6
I1
sS'the'
p4682
I3
ssS'theyre'
p4683
(dp4684
S'just'
p4685
I1
sg2705
I0
sg2672
I0
sg2715
I0
sg2692
I0
sg2710
I0
sg2661
I0
sg2748
I0
sS'to'
p4686
I5
sg2657
I0
sg2749
I0
sg2681
I0
sg2716
I0
sg2662
I0
sg2699
I0
sS'they'
p4687
I2
sg239
I0
sg2727
I0
sg2693
I0
sg2742
I0
sg2686
I0
sg2717
I0
sg2756
I0
sg2750
I0
sg2664
I0
sS'where'
p4688
I1
sg2682
I0
sS'people'
p4689
I1
sg2730
I0
sS'are'
p4690
I1
sg2751
I0
sg2669
I0
sg2667
I0
sS'for'
p4691
I3
sg2718
I0
sg2665
I0
sS'be'
p4692
I1
sg2670
I0
sg2653
I0
sg2671
I0
sg2654
I0
sS'quite'
p4693
I1
sg2719
I0
sg214
I0
sg2720
I0
sg216
I0
sS'by'
p4694
I1
sg2660
I0
sS'on'
p4695
I3
sg2656
I0
sg2725
I0
sS'of'
p4696
I2
sg2712
I0
sg2694
I0
sg2713
I0
sg2707
I0
sg2740
I0
sg2752
I0
sg2714
I0
sg2734
I0
sg2695
I0
sg2721
I0
sg2673
I0
sg2732
I0
sg2738
I0
sg2743
I0
sg2739
I0
sg2744
I0
sg2735
I0
sg2736
I0
sS'their'
p4697
I1
sg2674
I0
sg2687
I0
sg2688
I0
sg208
I0
sg2696
I0
sg2722
I0
sg2729
I0
sS'but'
p4698
I1
sg2723
I0
sg226
I0
sg2689
I0
sg2708
I0
sg2697
I0
sg2703
I0
sg2754
I0
sg2658
I0
sg2755
I0
sS'these'
p4699
I1
sg2659
I0
sg2698
I0
sS'many'
p4700
I1
sg219
I0
sg2668
I0
sg2676
I0
sg2675
I0
sg2737
I0
sg2741
I0
sS'in'
p4701
I2
sg2700
I0
sg2690
I0
sg2678
I0
sS'make'
p4702
I2
sg2724
I0
sg2709
I0
sg2679
I0
sg2666
I0
sg2746
I0
sg245
I0
sg2726
I0
sg2691
I0
sg6
I0
sg146
I0
sg2747
I0
ssS'patients'
p4703
(dp4704
S'of'
p4705
I9
ssS'whether'
p4706
(dp4707
S'to'
p4708
I50
sg6
I22
sS'or'
p4709
I23
sg1341
I16
sS'not'
p4710
I21
sS'and'
p4711
I12
sS'is'
p4712
I23
sS'it'
p4713
I19
sS'in'
p4714
I20
sS'the'
p4715
I61
sS'had'
p4716
I10
sg1340
I10
sS'be'
p4717
I16
sg1344
I10
sS'of'
p4718
I25
sg1347
I17
sS'was'
p4719
I19
sS'he'
p4720
I24
sS'as'
p4721
I7
ssS'amount'
p4722
(dp4723
g259
I0
sS'to'
p4724
I15
sS'large'
p4725
I4
sg265
I0
sS'for'
p4726
I3
sS'by'
p4727
I10
sS'on'
p4728
I7
sS'of'
p4729
I94
sS'from'
p4730
I5
sS'people'
p4731
I1
sS'that'
p4732
I8
sS'with'
p4733
I1
sS'this'
p4734
I3
sS'and'
p4735
I11
sS'is'
p4736
I6
sS'as'
p4737
I2
sS'in'
p4738
I18
sS'any'
p4739
I3
sS'which'
p4740
I3
sg264
I0
sg6
I18
sS'the'
p4741
I98
ssS'principle'
p4742
(dp4743
S'on'
p4744
I8
sS'that'
p4745
I9
sS'and'
p4746
I7
sg6
I12
ssS'plain'
p4747
(dp4748
S'to'
p4749
I2
sS'of'
p4750
I3
sg6
I6
sS'and'
p4751
I5
sS'in'
p4752
I7
sS'the'
p4753
I13
ssS'were'
p4754
(dp4755
g3319
I18
sS'even'
p4756
I13
sS'new'
p4757
I22
sS'men'
p4758
I34
sS'here'
p4759
I7
sS'me'
p4760
I8
sS'my'
p4761
I13
sS'very'
p4762
I17
sg3327
I20
sS'then'
p4763
I27
sS'them'
p4764
I20
sS'they'
p4765
I316
sg3331
I10
sS'little'
p4766
I11
sS'already'
p4767
I10
sS'girls'
p4768
I9
sg3334
I20
sg3335
I10
sg3337
I22
sS'cattle'
p4769
I9
sS'said'
p4770
I13
sS'we'
p4771
I91
sS'three'
p4772
I20
sS'much'
p4773
I11
sS'is'
p4774
I7
sS'in'
p4775
I264
sS'if'
p4776
I97
sS'things'
p4777
I14
sS'several'
p4778
I11
sS'the'
p4779
I764
sS'yet'
p4780
I11
sS'had'
p4781
I9
sS'people'
p4782
I29
sS'been'
p4783
I2
sS'for'
p4784
I97
sS'was'
p4785
I14
sg3357
I0
sS'may'
p4786
I1
sS'such'
p4787
I13
sg3360
I29
sg3361
I17
sS'still'
p4788
I28
sS'not'
p4789
I93
sS'now'
p4790
I18
sS'place'
p4791
I6
sS'first'
p4792
I11
sS'one'
p4793
I27
sS'given'
p4794
I11
sg3369
I23
sS'that'
p4795
I154
sg3323
I11
sg3371
I23
sS'and'
p4796
I442
sS'knew'
p4797
I10
sS'later'
p4798
I10
sS'only'
p4799
I37
sS'going'
p4800
I15
sg3379
I26
sS'many'
p4801
I24
sS'those'
p4802
I25
sS'these'
p4803
I75
sS'same'
p4804
I11
sS'no'
p4805
I38
sS'being'
p4806
I16
sS'on'
p4807
I72
sS'of'
p4808
I286
sS'or'
p4809
I38
sS'her'
p4810
I38
sS'there'
p4811
I183
sg3381
I10
sS'with'
p4812
I73
sS'af'
p4813
I7
sS'at'
p4814
I75
sS'you'
p4815
I61
sg3356
I16
sS'all'
p4816
I71
sS'children'
p4817
I9
sS'to'
p4818
I284
sS'large'
p4819
I9
sS'what'
p4820
I29
sS'point'
p4821
I1
sS'thought'
p4822
I9
sS'two'
p4823
I47
sS'more'
p4824
I35
sg6
I156
sS'held'
p4825
I11
sS'through'
p4826
I8
sS'good'
p4827
I12
sS'always'
p4828
I15
sS'found'
p4829
I9
sS'members'
p4830
I9
sS'officers'
p4831
I9
sS'also'
p4832
I23
sS'without'
p4833
I8
sS'most'
p4834
I10
sS'his'
p4835
I88
sS'him'
p4836
I21
sS'are'
p4837
I4
sS'both'
p4838
I34
sS'last'
p4839
I11
sS'while'
p4840
I18
sS'used'
p4841
I23
sg3419
I11
sS'some'
p4842
I31
sS'be'
p4843
I40
sS'by'
p4844
I112
sS'long'
p4845
I8
sg3424
I10
sS'boys'
p4846
I8
sS'up'
p4847
I16
sg3426
I12
sS'young'
p4848
I9
sS'great'
p4849
I10
sS'from'
p4850
I63
sS'few'
p4851
I18
sS'this'
p4852
I30
sS'when'
p4853
I46
sS'doing'
p4854
I12
sS'our'
p4855
I15
sS'out'
p4856
I23
sS'could'
p4857
I5
sS'their'
p4858
I47
sS'which'
p4859
I48
sS'who'
p4860
I48
sS'but'
p4861
I55
sS'areas'
p4862
I3
sS'as'
p4863
I121
sS'almost'
p4864
I8
sS'off'
p4865
I13
sS'well'
p4866
I11
sS'other'
p4867
I36
sS'were'
p4868
I2
sS'know'
p4869
I4
sS'like'
p4870
I15
sS'because'
p4871
I24
sg3450
I13
sS'about'
p4872
I17
sS'made'
p4873
I35
sg3455
I10
sg3457
I11
ssS'meet'
p4874
(dp4875
S'to'
p4876
I48
sS'of'
p4877
I13
sS'the'
p4878
I29
ssS'piece'
p4879
(dp4880
S'to'
p4881
I5
sS'of'
p4882
I70
sS'that'
p4883
I8
sg2489
I0
sS'and'
p4884
I10
sS'is'
p4885
I11
sS'in'
p4886
I9
sg6
I45
sS'for'
p4887
I6
ssS'whole'
p4888
(dp4889
S'to'
p4890
I22
sg6
I46
sg3995
I19
sS'and'
p4891
I40
sS'his'
p4892
I9
sS'it'
p4893
I8
sS'in'
p4894
I29
sS'the'
p4895
I174
sg3990
I11
sS'for'
p4896
I11
sS'on'
p4897
I17
sS'of'
p4898
I67
sS'was'
p4899
I14
sS'with'
p4900
I12
sS'as'
p4901
I27
ssS'know'
p4902
(dp4903
S'seemed'
p4904
I2
sS'must'
p4905
I9
sS'little'
p4906
I4
sS'did'
p4907
I27
sS'what'
p4908
I60
sg2363
I0
sS'never'
p4909
I11
sS'let'
p4910
I10
sS'didnt'
p4911
I31
sg2432
I0
sS'from'
p4912
I2
sS'would'
p4913
I14
sg2438
I0
sS'more'
p4914
I6
sS'me'
p4915
I7
sS'this'
p4916
I18
sS'can'
p4917
I9
sg2441
I10
sS'how'
p4918
I45
sS'such'
p4919
I1
sS'man'
p4920
I3
sg6
I24
sS'so'
p4921
I6
sS'still'
p4922
I3
sS'its'
p4923
I4
sS'difference'
p4924
I2
sS'good'
p4925
I3
sS'not'
p4926
I59
sS'now'
p4927
I6
sg2422
I0
sS'out'
p4928
I2
sS'reason'
p4929
I1
sS'could'
p4930
I7
sS'place'
p4931
I1
sS'dont'
p4932
I56
sS'one'
p4933
I11
sS'their'
p4934
I4
sS'part'
p4935
I1
sS'than'
p4936
I2
sg2367
I0
sS'were'
p4937
I5
sS'and'
p4938
I38
sS'have'
p4939
I9
sS'need'
p4940
I2
sS'other'
p4941
I4
sS'take'
p4942
I3
sS'which'
p4943
I7
sS'shall'
p4944
I3
sS'should'
p4945
I3
sS'do'
p4946
I40
sS'his'
p4947
I10
sg2449
I0
sS'where'
p4948
I8
sS'are'
p4949
I10
sS'between'
p4950
I2
sS'we'
p4951
I67
sS'here'
p4952
I4
sS'been'
p4953
I2
sS'much'
p4954
I12
sg2388
I0
sS'has'
p4955
I4
sS'these'
p4956
I3
sg2428
I0
sS'is'
p4957
I35
sS'it'
p4958
I30
sS'in'
p4959
I13
sS'make'
p4960
I1
sg1256
I165
sS'well'
p4961
I13
sS'the'
p4962
I86
sS'just'
p4963
I7
sg2452
I0
sg2381
I0
sS'had'
p4964
I7
sS'know'
p4965
I3
sS'because'
p4966
I3
sS'people'
p4967
I13
sS'for'
p4968
I9
sS'does'
p4969
I8
sS'be'
p4970
I5
sS'by'
p4971
I5
sS'on'
p4972
I4
sS'about'
p4973
I32
sS'of'
p4974
I27
sS'or'
p4975
I3
sS'there'
p4976
I7
sS'question'
p4977
I1
sS'way'
p4978
I6
sS'was'
p4979
I20
sS'but'
p4980
I19
sS'with'
p4981
I3
sS'he'
p4982
I53
sS'made'
p4983
I2
sS'whether'
p4984
I11
sS'problem'
p4985
I1
sS'an'
p4986
I5
sS'at'
p4987
I3
sS'no'
p4988
I10
sS'you'
p4989
I120
sg2390
I0
sg2391
I0
ss.