(dp0
S'among'
p1
(dp2
S'themselves'
p3
I5
sS'this'
p4
I2
sS'a'
p5
I16
sS'one'
p6
I1
sS'classes'
p7
I9
sS'and'
p8
I43
sS'most'
p9
I5
sS'only'
p10
I5
sS'various'
p11
I5
sS'an'
p12
I1
sS'people'
p13
I7
sS'or'
p14
I1
sS'differences'
p15
I1
sS'no'
p16
I1
ssS'right'
p17
(dp18
S'all'
p19
I59
sS'what'
p20
I5
sS'along'
p21
I6
sS'my'
p22
I7
sS'thats'
p23
I5
sS'after'
p24
I5
sS'wrong'
p25
I5
sS'its'
p26
I11
sS'into'
p27
I5
sS'then'
p28
I10
sS'they'
p29
I9
sS'now'
p30
I14
sS'went'
p31
I5
sS'side'
p32
I6
sS'could'
p33
I2
sS'thing'
p34
I5
sS'were'
p35
I8
sS'have'
p36
I14
sS'turn'
p37
I6
sS'any'
p38
I5
sS'his'
p39
I24
sS'him'
p40
I9
sS'are'
p41
I9
sS'said'
p42
I21
sS'away'
p43
I9
sS'here'
p44
I11
sS'come'
p45
I5
sS'is'
p46
I25
sS'it'
p47
I23
sS'in'
p48
I37
sS'if'
p49
I6
sS'make'
p50
I6
sS'hand'
p51
I9
sS'youre'
p52
I5
sS'the'
p53
I209
sS'left'
p54
I10
sS'just'
p55
I8
sS'has'
p56
I6
sS'know'
p57
I5
sS'be'
p58
I20
sS'by'
p59
I7
sS'on'
p60
I40
sS'of'
p61
I62
sS'down'
p62
I5
sS'there'
p63
I9
sS'was'
p64
I39
sS'but'
p65
I15
sS'he'
p66
I23
sS'up'
p67
I12
sS'as'
p68
I13
sS'at'
p69
I17
sS'no'
p70
I6
ssS'angel'
p71
(dp72
S'is'
p73
I1
sS'of'
p74
I1
ssS'less'
p75
(dp76
S'all'
p77
I5
sS'to'
p78
I31
sS'far'
p79
I10
sS'even'
p80
I6
sS'from'
p81
I6
sS'would'
p82
I7
sS'two'
p83
I7
sS'more'
p84
I44
sg5
I47
sS'developed'
p85
I12
sS'years'
p86
I5
sS'its'
p87
I5
sS'not'
p88
I12
sS'little'
p89
I5
sS'that'
p90
I18
sS'somewhat'
p91
I6
sS'than'
p92
I138
sS'were'
p93
I10
sS'and'
p94
I49
sS'have'
p95
I10
sS'but'
p96
I11
sS'nothing'
p97
I7
sS'countries'
p98
I7
sS'are'
p99
I17
sS'been'
p100
I6
sS'much'
p101
I10
sS'as'
p102
I8
sS'will'
p103
I8
sS'is'
p104
I33
sS'it'
p105
I13
sS'in'
p106
I37
sS'if'
p107
I6
sS'i'
p108
I5
sS'the'
p109
I81
sS'less'
p110
I14
sS'had'
p111
I8
sS'for'
p112
I24
sS'be'
p113
I14
sS'by'
p114
I12
sS'about'
p115
I8
sS'of'
p116
I47
sS'or'
p117
I40
sS'was'
p118
I27
sS'with'
p119
I14
sS'he'
p120
I5
sS'minutes'
p121
I6
sS'af'
p122
I5
sS'an'
p123
I7
sS'at'
p124
I7
sS'no'
p125
I13
sS'time'
p126
I5
ssS'being'
p127
(dp128
S'all'
p129
I7
sS'far'
p130
I6
sS'what'
p131
I6
sS'while'
p132
I5
sS'alone'
p133
I5
sS'from'
p134
I18
sS'this'
p135
I20
sS'my'
p136
I6
sS'instead'
p137
I7
sS'after'
p138
I6
sS'such'
p139
I5
sg5
I70
sS'so'
p140
I10
sS'before'
p141
I7
sS'they'
p142
I14
sS'not'
p143
I12
sS'now'
p144
I6
sS'our'
p145
I5
sS'one'
p146
I8
sS'done'
p147
I6
sS'too'
p148
I5
sS'that'
p149
I27
sS'than'
p150
I6
sS'were'
p151
I22
sS'and'
p152
I60
sS'any'
p153
I7
sS'able'
p154
I5
sS'which'
p155
I12
sS'most'
p156
I5
sS'only'
p157
I7
sS'his'
p158
I20
sS'made'
p159
I13
sS'him'
p160
I7
sS'are'
p161
I40
sS'against'
p162
I5
sS'these'
p163
I9
sS'is'
p164
I56
sS'it'
p165
I15
sS'in'
p166
I69
sS'used'
p167
I9
sS'without'
p168
I13
sS'very'
p169
I6
sS'the'
p170
I167
sS'human'
p171
I13
sS'for'
p172
I42
sS'by'
p173
I40
sS'on'
p174
I22
sS'about'
p175
I9
sS'of'
p176
I113
sS'capable'
p177
I6
sS'or'
p178
I16
sS'into'
p179
I14
sg108
I9
sS'her'
p180
I11
sS'was'
p181
I39
sS'but'
p182
I5
sS'he'
p183
I18
sS'an'
p184
I17
sS'as'
p185
I31
sS'at'
p186
I16
sS'no'
p187
I8
sS'out'
p188
I10
ssS'there'
p189
(dp190
S'force'
p191
I1
sS'here'
p192
I18
sS'returned'
p193
I1
sS'end'
p194
I1
sS'they'
p195
I8
sS'schools'
p196
I1
sS'each'
p197
I2
sS'another'
p198
I7
sS'rates'
p199
I1
sS'took'
p200
I1
sS'plenty'
p201
I5
sS'came'
p202
I1
sS'best'
p203
I1
sS'men'
p204
I5
sS'against'
p205
I1
sS'faces'
p206
I1
sS'been'
p207
I76
sS'near'
p208
I1
sS'is'
p209
I315
sS'programs'
p210
I1
sS'was'
p211
I326
sS'true'
p212
I1
sS'evidence'
p213
I10
sS'died'
p214
I5
sS'began'
p215
I1
sS'love'
p216
I1
sS'making'
p217
I1
sS'still'
p218
I34
sS'long'
p219
I15
sS'eyes'
p220
I1
sS'than'
p221
I2
sS'future'
p222
I1
sS'turned'
p223
I1
sS'any'
p224
I18
sS'sat'
p225
I8
sS'cities'
p226
I1
sS'no'
p227
I179
sS'bodies'
p228
I1
sS'money'
p229
I2
sS'death'
p230
I1
sS'thinking'
p231
I1
sS'enough'
p232
I6
sS'with'
p233
I17
sS'certain'
p234
I7
sS'children'
p235
I1
sS'past'
p236
I1
sS'stood'
p237
I19
sS'full'
p238
I1
sS'experience'
p239
I1
sS'family'
p240
I2
sS'put'
p241
I1
sS'remain'
p242
I5
sS'held'
p243
I1
sS'through'
p244
I3
sS'actually'
p245
I8
sS'house'
p246
I1
sS'reason'
p247
I14
sS'feet'
p248
I1
sS'least'
p249
I5
sS'relationship'
p250
I1
sS'behind'
p251
I1
sS'nothing'
p252
I25
sS'lying'
p253
I5
sS'trees'
p254
I1
sS'set'
p255
I1
sS'probably'
p256
I5
sS'both'
p257
I2
sS'else'
p258
I7
sS'government'
p259
I1
sS'big'
p260
I5
sS'run'
p261
I1
sS'anything'
p262
I5
sS'into'
p263
I4
sS'boys'
p264
I1
sS'problems'
p265
I1
sS'once'
p266
I7
sS'waiting'
p267
I5
sS'standing'
p268
I8
sS'from'
p269
I10
sS'doubt'
p270
I9
sS'women'
p271
I1
sS'heard'
p272
I1
sS'control'
p273
I1
sS'something'
p274
I15
sS'front'
p275
I1
sS'sexual'
p276
I1
sS'their'
p277
I1
sS'interests'
p278
I1
sS'fact'
p279
I5
sS'bring'
p280
I1
sS'words'
p281
I1
sS'thus'
p282
I5
sS'upon'
p283
I1
sS'thought'
p284
I5
sS'position'
p285
I1
sS'moments'
p286
I5
sS'simply'
p287
I5
sS'home'
p288
I1
sS'own'
p289
I1
sS'made'
p290
I2
sS'places'
p291
I1
sS'whether'
p292
I11
ssS'number'
p293
(dp294
S'limited'
p295
I5
sS'large'
p296
I23
sS'great'
p297
I5
sS'employees'
p298
I5
sS'total'
p299
I7
sS'values'
p300
I6
sg5
I147
sS'years'
p301
I10
sS'reduce'
p302
I5
sS'there'
p303
I7
sS'one'
p304
I5
sS'were'
p305
I6
sS'who'
p306
I12
sS'only'
p307
I6
sS'are'
p308
I18
sS'license'
p309
I8
sS'successes'
p310
I5
sS'will'
p311
I1
sS'middle'
p312
I9
sS'finite'
p313
I5
sS'people'
p314
I14
sS'for'
p315
I22
sS'stations'
p316
I6
sS'with'
p317
I14
sS'as'
p318
I9
ssS'accept'
p319
(dp320
S'all'
p321
I1
sS'him'
p322
I1
sS'for'
p323
I3
sS'would'
p324
I5
sS'that'
p325
I3
sS'in'
p326
I1
sg5
I4
ssS'two'
p327
(dp328
S'four'
p329
I4
sS'consider'
p330
I2
sS'whose'
p331
I1
sS'leaders'
p332
I1
sS'second'
p333
I3
sS'estimated'
p334
I1
sS'machines'
p335
I1
sS'even'
p336
I4
sS'new'
p337
I5
sS'told'
p338
I3
sS'join'
p339
I1
sS'study'
p340
I1
sS'completely'
p341
I1
sS'permit'
p342
I1
sS'changes'
p343
I1
sS'county'
p344
I1
sS'total'
p345
I1
sS'would'
p346
I3
sS'therefore'
p347
I1
sS'must'
p348
I3
sS'me'
p349
I3
sS'word'
p350
I1
sS'room'
p351
I2
sS'work'
p352
I1
sS'roof'
p353
I1
sS'im'
p354
I1
sS'my'
p355
I6
sS'keep'
p356
I3
sS'provide'
p357
I1
sS'how'
p358
I1
sS'president'
p359
I1
sS'law'
p360
I1
sS'purchase'
p361
I1
sS'maintain'
p362
I1
sS'ultimate'
p363
I1
sS'democratic'
p364
I1
sS'order'
p365
I2
sS'over'
p366
I4
sS'writing'
p367
I1
sS'better'
p368
I2
sS'easier'
p369
I1
sS'them'
p370
I13
sS'school'
p371
I2
sS'effects'
p372
I1
sS'they'
p373
I15
sS'reasonable'
p374
I1
sS'each'
p375
I12
sS'went'
p376
I5
sS'side'
p377
I1
sS'taught'
p378
I2
sS'laid'
p379
I1
sS'got'
p380
I2
sS'written'
p381
I1
sS'free'
p382
I2
sS'standard'
p383
I1
sS'wanted'
p384
I1
sS'moving'
p385
I1
sS'already'
p386
I1
sS'another'
p387
I6
sS'top'
p388
I1
sS'took'
p389
I3
sS'nations'
p390
I2
sS'bridge'
p391
I1
sS'ran'
p392
I1
sS'seek'
p393
I1
sS'that'
p394
I40
sS'1960'
p395
I1
sS'forces'
p396
I3
sS'exactly'
p397
I1
sS'came'
p398
I4
sS'do'
p399
I6
sS'10'
p400
I1
sS'bar'
p401
I1
sS'decided'
p402
I1
sS'result'
p403
I1
sS'best'
p404
I6
sS'techniques'
p405
I1
sS'said'
p406
I2
sS'away'
p407
I2
sS'score'
p408
I1
sS'we'
p409
I12
sS'never'
p410
I3
sS'news'
p411
I1
sS'country'
p412
I1
sS'against'
p413
I2
sS'appeared'
p414
I2
sS'trust'
p415
I1
sS'union'
p416
I1
sS'been'
p417
I10
sS'interest'
p418
I1
sS'basic'
p419
I2
sS'expected'
p420
I1
sS'east'
p421
I1
sS'is'
p422
I18
sS'it'
p423
I23
sS'in'
p424
I135
sS'if'
p425
I4
sS'make'
p426
I1
sS'several'
p427
I2
sS'hand'
p428
I1
sS'action'
p429
I1
sS'the'
p430
I370
sS'human'
p431
I3
sS'yet'
p432
I1
sS'had'
p433
I33
sS'has'
p434
I9
sS'gave'
p435
I4
sS'possible'
p436
I4
sS'birth'
p437
I1
sS'50'
p438
I1
sS'theyre'
p439
I1
sS'night'
p440
I1
sS'right'
p441
I1
sS'people'
p442
I7
sS'dead'
p443
I1
sS'unless'
p444
I1
sS'bottom'
p445
I1
sS'continue'
p446
I1
sS'particular'
p447
I2
sS'chapter'
p448
I1
sS'costs'
p449
I1
sS'dinner'
p450
I1
sS'efforts'
p451
I1
sS'down'
p452
I5
sS'class'
p453
I1
sS'was'
p454
I20
sS'war'
p455
I2
sS'medium'
p456
I1
sS'form'
p457
I3
sS'offer'
p458
I1
sS'true'
p459
I1
sS'inside'
p460
I1
sS'devices'
p461
I1
sS'phil'
p462
I1
sS'proved'
p463
I1
sS'exist'
p464
I1
sS'no'
p465
I8
sS'when'
p466
I12
sS'brothers'
p467
I1
sS'longer'
p468
I1
sS'time'
p469
I5
sS'dance'
p470
I1
sS'battle'
p471
I1
sS'william'
p472
I1
sS'presented'
p473
I1
sS'did'
p474
I1
sS'round'
p475
I1
sS'says'
p476
I1
sS'cost'
p477
I1
sS'assistance'
p478
I1
sS'international'
p479
I1
sS'understanding'
p480
I1
sS'water'
p481
I2
sS'alone'
p482
I1
sS'change'
p483
I1
sS'wait'
p484
I1
sS'example'
p485
I1
sS'studies'
p486
I1
sS'working'
p487
I2
sS'car'
p488
I2
sS'values'
p489
I1
sS'can'
p490
I10
sS'growing'
p491
I1
sS'arrive'
p492
I1
sS'heart'
p493
I1
sS'figure'
p494
I1
sS'dropped'
p495
I1
sS'allowed'
p496
I2
sS'means'
p497
I1
sS'1'
p498
I2
sS'may'
p499
I4
sS'use'
p500
I3
sS'spot'
p501
I1
sS'designed'
p502
I1
sS'date'
p503
I1
sS'data'
p504
I2
sS'man'
p505
I4
sS'remember'
p506
I1
sS'rather'
p507
I1
sS'so'
p508
I4
sS'experiments'
p509
I1
sS'forms'
p510
I1
sS'main'
p511
I1
sS'decades'
p512
I6
sS'happened'
p513
I1
sS'not'
p514
I10
sS'now'
p515
I4
sS'term'
p516
I1
sS'name'
p517
I2
sS'square'
p518
I1
sS'girl'
p519
I1
sS'living'
p520
I2
sS'shown'
p521
I1
sS'quite'
p522
I1
sS'training'
p523
I1
sS'place'
p524
I3
sS'directly'
p525
I3
sS'drove'
p526
I1
sS'white'
p527
I1
sS'national'
p528
I2
sS'friend'
p529
I1
sS'moscow'
p530
I1
sS'12'
p531
I1
sS'and'
p532
I152
sS'say'
p533
I1
sS'any'
p534
I4
sS'note'
p535
I1
sS'take'
p536
I5
sS'sure'
p537
I1
sS'paid'
p538
I1
sS'especially'
p539
I2
sS'average'
p540
I1
sS'drive'
p541
I1
sS'mrs'
p542
I1
sS'show'
p543
I3
sS'corner'
p544
I1
sS'going'
p545
I2
sS'get'
p546
I1
sS'nearly'
p547
I1
sS'yield'
p548
I1
sS'morning'
p549
I1
sS'where'
p550
I2
sS'husband'
p551
I1
sS'declared'
p552
I1
sS'federal'
p553
I1
sS'3'
p554
I1
sS'across'
p555
I3
sS'jobs'
p556
I1
sS'come'
p557
I3
sS'comes'
p558
I1
sS'period'
p559
I2
sS'vacation'
p560
I1
sS'observe'
p561
I1
sS'spirit'
p562
I1
sS'those'
p563
I9
sS'case'
p564
I2
sS'then'
p565
I6
sS'middle'
p566
I1
sS'property'
p567
I1
sS'pay'
p568
I1
sS'same'
p569
I1
sS'events'
p570
I1
sS'persons'
p571
I1
sS'largely'
p572
I1
sS'without'
p573
I1
sS'being'
p574
I1
sS'death'
p575
I2
sS'rose'
p576
I1
sS'except'
p577
I2
sS'real'
p578
I2
sS'around'
p579
I2
sS'read'
p580
I2
sS'listening'
p581
I1
sS'world'
p582
I3
sS'rear'
p583
I1
sS'power'
p584
I2
sS'on'
p585
I34
sS'central'
p586
I2
sS'jeep'
p587
I1
sS'industry'
p588
I1
sS'road'
p589
I1
sS'her'
p590
I6
sS'start'
p591
I1
sS'complete'
p592
I1
sS'enough'
p593
I2
sS'trying'
p594
I1
sS'with'
p595
I38
sS'af'
p596
I9
sS'describe'
p597
I1
sS'moved'
p598
I1
sS'an'
p599
I8
sS'as'
p600
I18
sS'at'
p601
I31
sS'students'
p602
I1
sS'suited'
p603
I1
sS'pool'
p604
I1
sS'all'
p605
I7
sS'month'
p606
I1
sS'apartment'
p607
I1
sS'safety'
p608
I1
sS'activities'
p609
I1
sS'very'
p610
I2
sS'louis'
p611
I1
sS'past'
p612
I2
sS'pass'
p613
I1
sS'further'
p614
I1
sS'what'
p615
I1
sS'public'
p616
I1
sS'full'
p617
I2
sS'table'
p618
I1
sS'ahead'
p619
I2
sS'suddenly'
p620
I1
sS'two'
p621
I4
sS'taken'
p622
I1
sS'more'
p623
I23
sS'door'
p624
I1
sS'company'
p625
I1
sS'known'
p626
I1
sS'hour'
p627
I3
sS'remain'
p628
I1
sS'nine'
p629
I1
sS'states'
p630
I2
sS'information'
p631
I2
sS'plane'
p632
I1
sS'response'
p633
I1
sg5
I67
sS'short'
p634
I1
sS'assign'
p635
I1
sS'help'
p636
I1
sS'isnt'
p637
I1
sS'through'
p638
I3
sS'committee'
p639
I1
sS'hell'
p640
I1
sS'its'
p641
I8
sS'25'
p642
I1
sS'might'
p643
I3
sS'desperately'
p644
I1
sS'stopped'
p645
I1
sS'referred'
p646
I2
sS'england'
p647
I1
sS'house'
p648
I3
sS'horse'
p649
I1
sS'base'
p650
I1
sS'put'
p651
I5
sS'beginning'
p652
I1
sS'american'
p653
I1
sS'mr'
p654
I1
sS'dont'
p655
I1
sS'number'
p656
I1
sS'feet'
p657
I5
sS'statement'
p658
I1
sS'passed'
p659
I1
sS'hotel'
p660
I1
sS'determined'
p661
I1
sS'substantial'
p662
I1
sS'orders'
p663
I1
sS'lie'
p664
I1
sS'play'
p665
I1
sS'added'
p666
I2
sS'most'
p667
I1
sS'services'
p668
I1
sS'clear'
p669
I1
sS'his'
p670
I21
sS'him'
p671
I5
sS'set'
p672
I1
sS'see'
p673
I4
sS'individual'
p674
I1
sS'close'
p675
I2
sS'various'
p676
I1
sS'conditions'
p677
I2
sS'available'
p678
I2
sS'aircraft'
p679
I1
sS'both'
p680
I5
sS'c'
p681
I1
sS'supply'
p682
I1
sS'church'
p683
I1
sS'political'
p684
I1
sS'whom'
p685
I1
sS'meeting'
p686
I1
sS'gas'
p687
I1
sS'understand'
p688
I1
sS'look'
p689
I1
sS'talking'
p690
I1
sS'while'
p691
I3
sS'match'
p692
I1
sS'theres'
p693
I1
sS'ready'
p694
I1
sS'government'
p695
I1
sS'used'
p696
I6
sS'purpose'
p697
I1
sS'recent'
p698
I1
sS'analysis'
p699
I1
sS'spend'
p700
I2
sS'shape'
p701
I1
sS'using'
p702
I1
sS'march'
p703
I1
sS'couple'
p704
I1
sS'individuals'
p705
I1
sS'essential'
p706
I1
sS'methods'
p707
I3
sS'spring'
p708
I1
sS'some'
p709
I2
sS'back'
p710
I2
sS'decision'
p711
I1
sS'be'
p712
I18
sS'run'
p713
I2
sS'step'
p714
I1
sS'served'
p715
I1
sS'range'
p716
I1
sS'within'
p717
I2
sS'nothing'
p718
I1
sS'question'
p719
I2
sS'himself'
p720
I2
sS'line'
p721
I3
sS'hair'
p722
I1
sS'up'
p723
I8
sS'us'
p724
I3
sS'planes'
p725
I1
sS'similar'
p726
I2
sS'called'
p727
I1
sS'helping'
p728
I1
sS'seemed'
p729
I1
sS'languages'
p730
I1
sS'women'
p731
I2
sS'sent'
p732
I1
sS'continued'
p733
I2
sS'expressed'
p734
I1
sS'body'
p735
I1
sS'others'
p736
I3
sS'extreme'
p737
I1
sS'makes'
p738
I1
sS'apply'
p739
I1
sS'standing'
p740
I1
sS'fed'
p741
I1
sS'from'
p742
I20
sS'hudson'
p743
I1
sS'next'
p744
I6
sS'doubt'
p745
I1
sS'themselves'
p746
I1
sS'started'
p747
I1
sS'appointed'
p748
I1
sS'account'
p749
I1
sS'this'
p750
I18
sS'drill'
p751
I1
sS'sir'
p752
I1
sS'united'
p753
I1
sS'six'
p754
I1
sS'stock'
p755
I1
sS'farm'
p756
I2
sS'reporters'
p757
I1
sS'practice'
p758
I1
sS'kiss'
p759
I1
sS'front'
p760
I1
sS'day'
p761
I5
sS'society'
p762
I2
sS'our'
p763
I1
sS'special'
p764
I1
sS'out'
p765
I8
sS'red'
p766
I1
sS'common'
p767
I1
sS'southern'
p768
I1
sS'approaches'
p769
I1
sS'york'
p770
I1
sS'additional'
p771
I1
sS'prepare'
p772
I1
sS'could'
p773
I5
sS'south'
p774
I2
sS'plastics'
p775
I1
sS'powerful'
p776
I1
sS'such'
p777
I4
sS'reference'
p778
I1
sS'system'
p779
I1
sS'their'
p780
I9
sS'final'
p781
I1
sS'interests'
p782
I1
sS'bed'
p783
I1
sS'exhibit'
p784
I1
sS'have'
p785
I16
sS'apparently'
p786
I1
sS'clearly'
p787
I2
sS'able'
p788
I1
sS'which'
p789
I24
sS'who'
p790
I15
sS'connected'
p791
I1
sS'why'
p792
I3
sS'soldiers'
p793
I1
sS'based'
p794
I1
sS'should'
p795
I2
sS'meant'
p796
I1
sS'she'
p797
I6
sS'mentioned'
p798
I1
sS'state'
p799
I2
sS'job'
p800
I2
sS'invited'
p801
I1
sS'respect'
p802
I1
sS'addition'
p803
I2
sS'define'
p804
I1
sS'corresponding'
p805
I1
sS'will'
p806
I4
sS'strange'
p807
I1
sS'material'
p808
I1
sS'upon'
p809
I4
sS'student'
p810
I1
sS'off'
p811
I5
sg108
I10
sS'less'
p812
I4
sS'sources'
p813
I1
sS'add'
p814
I1
sS'identical'
p815
I1
sS'know'
p816
I2
sS'press'
p817
I1
sS'you'
p818
I10
sS'like'
p819
I3
sS'home'
p820
I2
sS'broad'
p821
I1
sS'does'
p822
I1
sS'pike'
p823
I1
sS'about'
p824
I9
sS'own'
p825
I1
sS'rushed'
p826
I1
sS'utopian'
p827
I1
sS'buy'
p828
I2
sS'north'
p829
I1
sS'quiney'
p830
I1
sS'he'
p831
I24
sS'made'
p832
I10
sS'wish'
p833
I1
sS'wife'
p834
I3
sS'display'
p835
I1
sS'recognize'
p836
I1
sS'life'
p837
I3
sS'compared'
p838
I1
sS'other'
p839
I10
sS'repeat'
p840
I1
sS'june'
p841
I1
ssS'county'
p842
(dp843
S'to'
p844
I3
sS'his'
p845
I1
sS'by'
p846
I1
sS'your'
p847
I1
sS'would'
p848
I1
sS'that'
p849
I1
sS'than'
p850
I1
sS'this'
p851
I1
sS'of'
p852
I7
sS'in'
p853
I14
sg5
I3
sS'the'
p854
I16
ssS'patience'
p855
(dp856
S'of'
p857
I2
ssS'weather'
p858
(dp859
S'cold'
p860
I5
sS'to'
p861
I2
sS'not'
p862
I1
sS'this'
p863
I1
sS'for'
p864
I1
sS'be'
p865
I1
sS'or'
p866
I3
sS'was'
p867
I4
sS'he'
p868
I2
sS'will'
p869
I1
sS'is'
p870
I1
sS'it'
p871
I2
sg5
I4
ssS'bare'
p872
(dp873
S'to'
p874
I3
sS'on'
p875
I1
ssS'are'
p876
(dp877
S'four'
p878
I9
sS'whose'
p879
I8
sS'school'
p880
I7
sS'companies'
p881
I6
sS'leaders'
p882
I5
sS'likely'
p883
I17
sS'decisions'
p884
I5
sS'men'
p885
I23
sS'here'
p886
I30
sS'atoms'
p887
I5
sS'would'
p888
I3
sS'therefore'
p889
I13
sS'until'
p890
I8
sS'separated'
p891
I6
sS'aware'
p892
I8
sS'roof'
p893
I5
sS'my'
p894
I13
sS'writers'
p895
I5
sS'types'
p896
I11
sS'order'
p897
I7
sS'numbers'
p898
I7
sS'before'
p899
I9
sS'better'
p900
I6
sS'then'
p901
I16
sS'they'
p902
I254
sS'each'
p903
I15
sS'americans'
p904
I5
sS'snakes'
p905
I5
sS'given'
p906
I19
sS'free'
p907
I7
sS'standard'
p908
I5
sS'created'
p909
I6
sS'features'
p910
I8
sS'primary'
p911
I5
sS'another'
p912
I9
sS'electronic'
p913
I5
sS'girls'
p914
I5
sS'needed'
p915
I11
sS'listed'
p916
I7
sS'programs'
p917
I5
sS'matter'
p918
I6
sS'relatively'
p919
I6
sS'though'
p920
I8
sS'points'
p921
I5
sS'saying'
p922
I6
sS'bad'
p923
I8
sS'however'
p924
I25
sS'three'
p925
I12
sS'much'
p926
I13
sS'expected'
p927
I7
sS'families'
p928
I5
sS'n'
p929
I5
sS'soils'
p930
I5
sS'if'
p931
I81
sS'things'
p932
I19
sS'several'
p933
I10
sS'fairly'
p934
I5
sS'materials'
p935
I7
sS'the'
p936
I865
sS'left'
p937
I9
sS'just'
p938
I15
sS'human'
p939
I5
sS'facts'
p940
I9
sS'had'
p941
I2
sS'possible'
p942
I7
sS'steps'
p943
I5
sS'right'
p944
I13
sS'old'
p945
I6
sS'statements'
p946
I5
sS'methods'
p947
I5
sS'people'
p948
I38
sS'some'
p949
I58
sS'differences'
p950
I7
sS'born'
p951
I10
sS'emotional'
p952
I5
sS'evidence'
p953
I5
sS'when'
p954
I52
sS'interested'
p955
I8
sS'longer'
p956
I7
sS'together'
p957
I9
sS'frequencies'
p958
I7
sS'governments'
p959
I5
sS'presented'
p960
I8
sS'water'
p961
I9
sS'groups'
p962
I5
sS'alone'
p963
I7
sS'usually'
p964
I11
sS'working'
p965
I7
sS'organizations'
p966
I5
sS'values'
p967
I13
sS'following'
p968
I8
sS'making'
p969
I6
sS'requirements'
p970
I5
sS'divided'
p971
I7
sS'fed'
p972
I6
sS'designed'
p973
I10
sS'such'
p974
I48
sS'data'
p975
I19
sS'ones'
p976
I8
sS'so'
p977
I47
sS'increase'
p978
I1
sS'indeed'
p979
I6
sS'course'
p980
I17
sS'still'
p981
I25
sS'how'
p982
I20
sS'interesting'
p983
I5
sS'policy'
p984
I1
sS'not'
p985
I158
sS'now'
p986
I52
sS'living'
p987
I6
sS'shown'
p988
I10
sS'cars'
p989
I7
sS'quite'
p990
I14
sS'poems'
p991
I14
sS'directly'
p992
I8
sS'little'
p993
I10
sS'necessarily'
p994
I7
sS'speaking'
p995
I5
sS'mostly'
p996
I8
sS'that'
p997
I227
sS'than'
p998
I44
sS'any'
p999
I14
sS'ideas'
p1000
I11
sS'paid'
p1001
I9
sS'especially'
p1002
I5
sS'considered'
p1003
I7
sS'ways'
p1004
I8
sS'either'
p1005
I7
sS'only'
p1006
I44
sS'going'
p1007
I19
sS'over'
p1008
I11
sS'nearly'
p1009
I8
sS'where'
p1010
I31
sS'signs'
p1011
I8
sS'enough'
p1012
I13
sS'between'
p1013
I5
sS'jobs'
p1014
I5
sS'many'
p1015
I71
sS'among'
p1016
I13
sS'learning'
p1017
I5
sS'capable'
p1018
I10
sS'those'
p1019
I51
sS'these'
p1020
I167
sS'policies'
p1021
I5
sS'taking'
p1022
I6
sS'different'
p1023
I19
sS'same'
p1024
I16
sS'events'
p1025
I5
sS'largely'
p1026
I6
sS'no'
p1027
I45
sS'summer'
p1028
I7
sS'being'
p1029
I35
sS'jews'
p1030
I5
sS'provided'
p1031
I9
sS'business'
p1032
I10
sS'found'
p1033
I7
sS'stations'
p1034
I7
sS'factors'
p1035
I5
sS'practical'
p1036
I5
sS'or'
p1037
I75
sS'your'
p1038
I12
sS'her'
p1039
I5
sS'there'
p1040
I271
sS'complete'
p1041
I5
sS'trying'
p1042
I11
sS'required'
p1043
I10
sS'af'
p1044
I26
sS'certain'
p1045
I14
sS'as'
p1046
I127
sS'you'
p1047
I140
sS'poor'
p1048
I7
sS'students'
p1049
I8
sS'teeth'
p1050
I8
sS'important'
p1051
I25
sS'religious'
p1052
I6
sS'opportunities'
p1053
I5
sS'washing'
p1054
I5
sS'small'
p1055
I6
sS'what'
p1056
I56
sS'public'
p1057
I6
sS'strong'
p1058
I6
sS'reason'
p1059
I5
sS'trained'
p1060
I5
sS'distinct'
p1061
I6
sS'two'
p1062
I47
sS'taken'
p1063
I9
sS'more'
p1064
I67
sS'beautiful'
p1065
I6
sS'states'
p1066
I7
sS'simple'
p1067
I6
sS'rather'
p1068
I7
sg5
I155
sS'held'
p1069
I10
sS'through'
p1070
I8
sS'its'
p1071
I19
sS'rapidly'
p1072
I5
sS'actually'
p1073
I6
sS'systems'
p1074
I10
sS'good'
p1075
I18
sS'seeking'
p1076
I5
sS'always'
p1077
I11
sS'really'
p1078
I13
sS'number'
p1079
I16
sS'too'
p1080
I29
sS'park'
p1081
I5
sS'believe'
p1082
I6
sS'convinced'
p1083
I5
sS'b'
p1084
I6
sS'determined'
p1085
I7
sS'patterns'
p1086
I5
sS'costs'
p1087
I10
sS'significant'
p1088
I7
sS'sometimes'
p1089
I8
sS'area'
p1090
I7
sS'less'
p1091
I13
sS'his'
p1092
I33
sS'dependent'
p1093
I5
sS'common'
p1094
I9
sS'set'
p1095
I10
sS'see'
p1096
I6
sS'individual'
p1097
I8
sS'classes'
p1098
I5
sS'probably'
p1099
I8
sS'conditions'
p1100
I6
sS'attention'
p1101
I1
sS'subject'
p1102
I6
sS'both'
p1103
I25
sg681
I6
sS'point'
p1104
I8
sS'reasons'
p1105
I9
sS'simply'
p1106
I7
sS'while'
p1107
I15
sS'ready'
p1108
I9
sS'used'
p1109
I44
sS'lower'
p1110
I5
sS'obviously'
p1111
I5
sS'questions'
p1112
I8
sS'also'
p1113
I36
sS'workers'
p1114
I6
sS'apt'
p1115
I5
sS'like'
p1116
I12
sS'follows'
p1117
I6
sS'essential'
p1118
I9
sS'often'
p1119
I27
sS'was'
p1120
I1
sS'measurements'
p1121
I5
sS'per'
p1122
I5
sS'religion'
p1123
I6
sS'by'
p1124
I124
sS'within'
p1125
I13
sS'primarily'
p1126
I5
sS'frames'
p1127
I5
sS'properly'
p1128
I6
sS'similar'
p1129
I8
sS'called'
p1130
I8
sS'associated'
p1131
I7
sS'elements'
p1132
I6
sS'sides'
p1133
I6
sS'results'
p1134
I11
sS'centers'
p1135
I5
sS'concerned'
p1136
I16
sS'presently'
p1137
I5
sS'power'
p1138
I1
sS'involved'
p1139
I9
sS'larger'
p1140
I7
sS'few'
p1141
I27
sS'themselves'
p1142
I18
sS'women'
p1143
I10
sS'high'
p1144
I10
sS'located'
p1145
I6
sS'seeds'
p1146
I5
sS'blocks'
p1147
I7
sS'lines'
p1148
I10
sS'own'
p1149
I5
sg498
I18
sS'willing'
p1150
I6
sS'covered'
p1151
I5
sS'doing'
p1152
I12
sS'related'
p1153
I7
sS'books'
p1154
I5
sS'parents'
p1155
I5
sS'their'
p1156
I60
sS'able'
p1157
I6
sS'which'
p1158
I121
sS'unless'
p1159
I9
sS'who'
p1160
I82
sS'but'
p1161
I76
sS'planning'
p1162
I5
sS'based'
p1163
I7
sS'should'
p1164
I1
sS'local'
p1165
I7
sS'means'
p1166
I8
sS'familiar'
p1167
I7
sS'words'
p1168
I11
sS'procedures'
p1169
I7
sS'areas'
p1170
I12
sS'places'
p1171
I6
sS'available'
p1172
I41
sS'neither'
p1173
I6
sS'equal'
p1174
I6
sS'figures'
p1175
I5
sS'table'
p1176
I7
sS'almost'
p1177
I11
sS'perhaps'
p1178
I7
sS'difficult'
p1179
I6
sS'frequently'
p1180
I5
sS'english'
p1181
I5
sS'sources'
p1182
I10
sS'other'
p1183
I52
sS'know'
p1184
I11
sS'immediately'
p1185
I5
sS'necessary'
p1186
I11
sS'lost'
p1187
I5
sS'future'
p1188
I5
sS'because'
p1189
I30
sS'getting'
p1190
I5
sS'below'
p1191
I7
sS'problem'
p1192
I6
ssS'sight'
p1193
(dp1194
S'his'
p1195
I6
sS'out'
p1196
I10
ssS'seen'
p1197
(dp1198
S'could'
p1199
I9
sS'ever'
p1200
I20
sS'never'
p1201
I14
sS'through'
p1202
I5
sS'they'
p1203
I17
sS'since'
p1204
I6
sS'one'
p1205
I6
sS'that'
p1206
I24
sS'hadnt'
p1207
I5
sS'were'
p1208
I7
sS'and'
p1209
I26
sS'have'
p1210
I39
sS'she'
p1211
I7
sS'we'
p1212
I16
sS'can'
p1213
I15
sS'will'
p1214
I5
sS'it'
p1215
I18
sg108
I23
sS'had'
p1216
I63
sS'has'
p1217
I11
sS'like'
p1218
I5
sS'be'
p1219
I44
sS'or'
p1220
I7
sS'her'
p1221
I8
sS'he'
p1222
I22
sS'as'
p1223
I30
sS'you'
p1224
I5
ssS'our'
p1225
(dp1226
S'whose'
p1227
I1
sS'school'
p1228
I1
sS'men'
p1229
I5
sS'here'
p1230
I3
sS'would'
p1231
I16
sS'therefore'
p1232
I1
sS'until'
p1233
I1
sS'aware'
p1234
I1
sS'my'
p1235
I1
sS'writers'
p1236
I1
sS'order'
p1237
I1
sS'over'
p1238
I2
sS'then'
p1239
I2
sS'they'
p1240
I3
sS'each'
p1241
I1
sS'little'
p1242
I2
sS'free'
p1243
I1
sS'another'
p1244
I2
sS'too'
p1245
I3
sS'advisory'
p1246
I5
sS'bad'
p1247
I1
sS'subject'
p1248
I1
sS'capacity'
p1249
I7
sS'three'
p1250
I1
sS'the'
p1251
I163
sS'left'
p1252
I1
sS'just'
p1253
I1
sS'facts'
p1254
I1
sS'had'
p1255
I9
sS'board'
p1256
I7
sS'right'
p1257
I3
sS'old'
p1258
I1
sS'people'
p1259
I7
sS'born'
p1260
I1
sS'citizens'
p1261
I7
sS'was'
p1262
I11
sS'differences'
p1263
I1
sS'evidence'
p1264
I1
sS'no'
p1265
I1
sS'longer'
p1266
I1
sS'teeth'
p1267
I1
sS'assistance'
p1268
I6
sS'international'
p1269
I6
sS'usually'
p1270
I1
sS'working'
p1271
I1
sS'making'
p1272
I1
sg498
I1
sS'designed'
p1273
I2
sS'data'
p1274
I2
sS'so'
p1275
I7
sS'course'
p1276
I2
sS'still'
p1277
I1
sS'how'
p1278
I3
sS'policy'
p1279
I5
sS'not'
p1280
I18
sS'now'
p1281
I4
sS'increase'
p1282
I5
sS'given'
p1283
I1
sS'that'
p1284
I47
sS'than'
p1285
I7
sS'any'
p1286
I3
sS'ideas'
p1287
I2
sS'paid'
p1288
I1
sS'only'
p1289
I9
sS'held'
p1290
I1
sS'where'
p1291
I4
sS'ways'
p1292
I1
sS'between'
p1293
I1
sS'jobs'
p1294
I1
sS'many'
p1295
I5
sS'among'
p1296
I2
sS'better'
p1297
I1
sS'those'
p1298
I3
sS'these'
p1299
I4
sS'good'
p1300
I2
sS'different'
p1301
I2
sS'same'
p1302
I1
sS'being'
p1303
I2
sS'table'
p1304
I1
sS'business'
p1305
I2
sS'if'
p1306
I11
sS'practical'
p1307
I1
sS'or'
p1308
I12
sS'her'
p1309
I1
sS'there'
p1310
I3
sS'enough'
p1311
I2
sS'certain'
p1312
I1
sS'as'
p1313
I29
sS'you'
p1314
I4
sS'important'
p1315
I1
sS'religious'
p1316
I1
sS'small'
p1317
I1
sS'what'
p1318
I7
sS'strong'
p1319
I1
sS'trained'
p1320
I1
sS'two'
p1321
I3
sS'more'
p1322
I8
sS'history'
p1323
I8
sS'states'
p1324
I1
sS'numbers'
p1325
I1
sS'rather'
p1326
I1
sg5
I20
sS'its'
p1327
I3
sS'primary'
p1328
I1
sS'always'
p1329
I2
sS'really'
p1330
I2
sS'number'
p1331
I1
sS'believe'
p1332
I1
sS'also'
p1333
I7
sS'his'
p1334
I3
sS'common'
p1335
I2
sS'set'
p1336
I1
sS'see'
p1337
I1
sS'probably'
p1338
I1
sS'available'
p1339
I3
sS'attention'
p1340
I5
sS'both'
p1341
I2
sS'point'
p1342
I1
sS'while'
p1343
I1
sS'ready'
p1344
I1
sS'used'
p1345
I2
sS'lower'
p1346
I1
sS'know'
p1347
I1
sS'questions'
p1348
I1
sS'essential'
p1349
I1
sS'often'
p1350
I1
sS'some'
p1351
I5
sS'per'
p1352
I1
sS'by'
p1353
I24
sS'within'
p1354
I2
sS'elements'
p1355
I1
sS'required'
p1356
I1
sS'results'
p1357
I1
sS'centers'
p1358
I1
sS'power'
p1359
I6
sS'involved'
p1360
I1
sS'fed'
p1361
I1
sS'few'
p1362
I3
sS'themselves'
p1363
I1
sS'women'
p1364
I1
sS'when'
p1365
I7
sS'lines'
p1366
I1
sS'doing'
p1367
I2
sS'books'
p1368
I1
sS'could'
p1369
I5
sS'their'
p1370
I3
sS'able'
p1371
I1
sS'which'
p1372
I17
sS'unless'
p1373
I1
sS'who'
p1374
I6
sS'future'
p1375
I1
sS'based'
p1376
I1
sS'knowledge'
p1377
I5
sS'should'
p1378
I7
sS'words'
p1379
I1
sS'procedures'
p1380
I1
sS'areas'
p1381
I1
sS'neither'
p1382
I1
sS'equal'
p1383
I1
sS'perhaps'
p1384
I1
sS'frequently'
p1385
I1
sS'less'
p1386
I2
sS'immediately'
p1387
I1
sS'necessary'
p1388
I1
sS'like'
p1389
I2
sS'lost'
p1390
I1
sS'because'
p1391
I7
sS'students'
p1392
I1
sS'own'
p1393
I31
sS'much'
p1394
I2
sS'but'
p1395
I16
sS'below'
p1396
I1
sS'problem'
p1397
I1
sS'other'
p1398
I4
ssS'its'
p1399
(dp1400
S'under'
p1401
I14
sS'new'
p1402
I19
sS'would'
p1403
I14
sS'until'
p1404
I7
sS'must'
p1405
I10
sS'me'
p1406
I6
sS'word'
p1407
I5
sS'work'
p1408
I9
sS'after'
p1409
I6
sS'think'
p1410
I5
sS'over'
p1411
I12
sS'before'
p1412
I7
sS'each'
p1413
I12
sS'side'
p1414
I7
sS'another'
p1415
I5
sS'too'
p1416
I8
sS'strength'
p1417
I5
sS'1960'
p1418
I6
sS'even'
p1419
I12
sS'do'
p1420
I5
sS'best'
p1421
I8
sS'terms'
p1422
I5
sS'nature'
p1423
I6
sS'however'
p1424
I5
sS'asked'
p1425
I5
sS'been'
p1426
I8
sS'commission'
p1427
I5
sS'much'
p1428
I8
sS'life'
p1429
I10
sS'has'
p1430
I40
sS'is'
p1431
I71
sS'it'
p1432
I64
sS'in'
p1433
I214
sS'if'
p1434
I10
sS'make'
p1435
I6
sS'the'
p1436
I263
sS'just'
p1437
I7
sS'had'
p1438
I24
sS'potential'
p1439
I5
sS'right'
p1440
I5
sS'people'
p1441
I7
sS'presence'
p1442
I5
sS'down'
p1443
I7
sS'way'
p1444
I22
sS'was'
p1445
I50
sS'head'
p1446
I13
sS'form'
p1447
I12
sS'when'
p1448
I14
sS'reality'
p1449
I5
sS'for'
p1450
I82
sS'time'
p1451
I8
sS'change'
p1452
I6
sS'can'
p1453
I15
sS'economy'
p1454
I5
sS'may'
p1455
I15
sS'holster'
p1456
I5
sS'such'
p1457
I5
sS'maybe'
p1458
I6
sS'so'
p1459
I19
sS'course'
p1460
I9
sS'still'
p1461
I10
sS'not'
p1462
I35
sS'now'
p1463
I14
sS'name'
p1464
I15
sS'year'
p1465
I6
sS'place'
p1466
I12
sS'support'
p1467
I5
sS'first'
p1468
I13
sS'one'
p1469
I25
sS'that'
p1470
I65
sS'than'
p1471
I17
sS'were'
p1472
I9
sS'and'
p1473
I287
sS'any'
p1474
I6
sS'take'
p1475
I6
sS'especially'
p1476
I6
sS'only'
p1477
I22
sS'where'
p1478
I8
sS'many'
p1479
I6
sS'among'
p1480
I5
sS'color'
p1481
I6
sS'those'
p1482
I6
sS'no'
p1483
I8
sS'power'
p1484
I10
sS'on'
p1485
I82
sS'of'
p1486
I279
sS'industry'
p1487
I5
sS'image'
p1488
I5
sS'with'
p1489
I106
sS'an'
p1490
I17
sS'as'
p1491
I51
sS'at'
p1492
I37
sS'you'
p1493
I8
sS'important'
p1494
I7
sS'all'
p1495
I32
sS'to'
p1496
I211
sS'program'
p1497
I8
sS'very'
p1498
I7
sS'small'
p1499
I6
sS'what'
p1500
I10
sS'public'
p1501
I6
sS'christian'
p1502
I6
sS'action'
p1503
I5
sS'two'
p1504
I5
sS'more'
p1505
I10
sS'company'
p1506
I6
sS'history'
p1507
I6
sS'states'
p1508
I11
sg5
I77
sS'through'
p1509
I13
sS'existence'
p1510
I8
sS'its'
p1511
I38
sS'good'
p1512
I7
sS'found'
p1513
I5
sS'since'
p1514
I8
sS'base'
p1515
I5
sS'members'
p1516
I15
sS'beginning'
p1517
I7
sS'part'
p1518
I5
sS'center'
p1519
I5
sS'most'
p1520
I17
sS'plan'
p1521
I5
sS'nothing'
p1522
I5
sS'less'
p1523
I6
sS'his'
p1524
I10
sS'during'
p1525
I10
sS'set'
p1526
I5
sS'are'
p1527
I11
sS'last'
p1528
I5
sS'church'
p1529
I13
sS'century'
p1530
I5
sS'itself'
p1531
I5
sS'purpose'
p1532
I5
sS'world'
p1533
I7
sS'also'
p1534
I14
sS'some'
p1535
I5
sS'be'
p1536
I23
sS'by'
p1537
I60
sS'allotment'
p1538
I6
sS'into'
p1539
I17
sS'within'
p1540
I6
sS'line'
p1541
I5
sS'characteristic'
p1542
I5
sS'up'
p1543
I10
sS'influence'
p1544
I5
sS'meaning'
p1545
I5
sS'far'
p1546
I5
sS'uniqueness'
p1547
I5
sS'entire'
p1548
I5
sS'business'
p1549
I6
sS'great'
p1550
I5
sS'use'
p1551
I8
sS'from'
p1552
I47
sS'this'
p1553
I23
sS'process'
p1554
I6
sS'united'
p1555
I8
sS'stock'
p1556
I5
sS'or'
p1557
I27
sS'measure'
p1558
I6
sS'out'
p1559
I21
sS'could'
p1560
I5
sS'reaches'
p1561
I5
sS'reached'
p1562
I8
sS'system'
p1563
I7
sS'have'
p1564
I21
sS'which'
p1565
I25
sS'who'
p1566
I7
sS'based'
p1567
I5
sS'should'
p1568
I9
sS'local'
p1569
I9
sS'we'
p1570
I8
sS'state'
p1571
I8
sS'attention'
p1572
I5
sS'importance'
p1573
I7
sS'general'
p1574
I6
sS'present'
p1575
I11
sS'appearance'
p1576
I5
sS'value'
p1577
I9
sS'will'
p1578
I20
sS'almost'
p1579
I7
sS'surface'
p1580
I8
sS'upon'
p1581
I6
sS'effect'
p1582
I5
sS'off'
p1583
I5
sg108
I16
sS'well'
p1584
I8
sS'thought'
p1585
I5
sS'position'
p1586
I7
sS'government'
p1587
I7
sS'press'
p1588
I5
sS'like'
p1589
I9
sS'lost'
p1590
I14
sS'loses'
p1591
I6
sS'because'
p1592
I19
sS'stage'
p1593
I7
sS'about'
p1594
I12
sS'own'
p1595
I53
sS'but'
p1596
I47
sS'he'
p1597
I15
sS'made'
p1598
I9
ssS'to'
p1599
(dp1600
S'yellow'
p1601
I5
sS'four'
p1602
I19
sS'increase'
p1603
I25
sS'lord'
p1604
I6
sS'bringing'
p1605
I5
sS'second'
p1606
I19
sS'available'
p1607
I27
sS'contributed'
p1608
I14
sS'reported'
p1609
I8
sS'climbed'
p1610
I10
sS'reports'
p1611
I5
sS'military'
p1612
I14
sS'owed'
p1613
I5
sS'replace'
p1614
I9
sS'brought'
p1615
I36
sS'unit'
p1616
I7
sS'sexual'
p1617
I7
sS'spoke'
p1618
I9
sS'music'
p1619
I16
sS'therefore'
p1620
I17
sS'strike'
p1621
I7
sS'relax'
p1622
I6
sS'brings'
p1623
I12
sS'glass'
p1624
I7
sS'hole'
p1625
I5
sS'hold'
p1626
I33
sS'circumstances'
p1627
I6
sS'pursue'
p1628
I6
sS'example'
p1629
I16
sS'want'
p1630
I146
sS'travel'
p1631
I8
sS'damage'
p1632
I9
sS'machine'
p1633
I9
sS'how'
p1634
I101
sS'hot'
p1635
I7
sS'effective'
p1636
I11
sS'headquarters'
p1637
I6
sS'democratic'
p1638
I7
sS'fit'
p1639
I18
sS'fix'
p1640
I6
sS'easier'
p1641
I17
sS'effects'
p1642
I9
sS'financial'
p1643
I8
sS'impossible'
p1644
I19
sS'ring'
p1645
I5
sS'encourage'
p1646
I14
sS'sheet'
p1647
I5
sS'service'
p1648
I25
sS'returns'
p1649
I7
sS'needed'
p1650
I26
sS'master'
p1651
I6
sS'listen'
p1652
I15
sS'wisdom'
p1653
I5
sS'crawl'
p1654
I5
sS'nations'
p1655
I9
sS'project'
p1656
I10
sS'feeling'
p1657
I8
sS'acquisition'
p1658
I5
sS'willingness'
p1659
I5
sS'boston'
p1660
I6
sS'person'
p1661
I22
sS'recommended'
p1662
I5
sS'causing'
p1663
I5
sS'shall'
p1664
I24
sS'object'
p1665
I6
sS'mouth'
p1666
I7
sS'letter'
p1667
I26
sS'professor'
p1668
I5
sS'camp'
p1669
I5
sS'saying'
p1670
I5
sS'participate'
p1671
I8
sS'tempted'
p1672
I8
sS'release'
p1673
I9
sS'respond'
p1674
I15
sS'fair'
p1675
I7
sS'sensitivity'
p1676
I6
sS'transferred'
p1677
I11
sS'result'
p1678
I8
sS'fail'
p1679
I17
sS'best'
p1680
I43
sS'score'
p1681
I5
sS'preserve'
p1682
I6
sS'never'
p1683
I61
sS'nature'
p1684
I9
sS'rolled'
p1685
I6
sS'extent'
p1686
I37
sS'debt'
p1687
I6
sS'country'
p1688
I23
sS'planned'
p1689
I11
sS'argue'
p1690
I6
sS'adapted'
p1691
I5
sS'asked'
p1692
I42
sS'union'
p1693
I10
sS'life'
p1694
I67
sS'child'
p1695
I17
sS'european'
p1696
I8
sS'opinions'
p1697
I5
sS'had'
p1698
I519
sS'has'
p1699
I180
sS'survival'
p1700
I6
sS'possible'
p1701
I61
sS'possibly'
p1702
I6
sS'birth'
p1703
I7
sS'unique'
p1704
I5
sS'desire'
p1705
I30
sS'remind'
p1706
I5
sS'attorney'
p1707
I5
sS'right'
p1708
I88
sS'crowd'
p1709
I5
sS'people'
p1710
I89
sS'easy'
p1711
I36
sS'sure'
p1712
I42
sS'creep'
p1713
I6
sS'bottom'
p1714
I7
sS'contributing'
p1715
I5
sS'individuals'
p1716
I5
sS'dollars'
p1717
I6
sS'rebut'
p1718
I5
sS'raised'
p1719
I7
sS'pertaining'
p1720
I5
sS'support'
p1721
I28
sS'authorized'
p1722
I8
sS'happy'
p1723
I11
sS'offer'
p1724
I15
sS'inside'
p1725
I15
sS'devices'
p1726
I5
sS'exist'
p1727
I6
sS'floor'
p1728
I19
sS'roll'
p1729
I9
sS'intend'
p1730
I6
sS'slaves'
p1731
I12
sS'time'
p1732
I150
sS'push'
p1733
I13
sS'corps'
p1734
I6
sS'choice'
p1735
I8
sS'exact'
p1736
I6
sS'henrietta'
p1737
I7
sS'leave'
p1738
I56
sS'settle'
p1739
I6
sS'prevent'
p1740
I23
sS'findings'
p1741
I6
sS'sign'
p1742
I10
sS'roof'
p1743
I6
sS'current'
p1744
I8
sS'understanding'
p1745
I5
sS'address'
p1746
I7
sS'alone'
p1747
I14
sS'studies'
p1748
I7
sS'love'
p1749
I22
sS'prefer'
p1750
I8
sS'logical'
p1751
I6
sS'working'
p1752
I12
sS'opposed'
p1753
I7
sS'afford'
p1754
I9
sS'values'
p1755
I10
sS'stature'
p1756
I5
sS'believed'
p1757
I9
sS'allowed'
p1758
I27
sS'spot'
p1759
I7
sS'date'
p1760
I17
sS'such'
p1761
I61
sS'data'
p1762
I13
sS'stress'
p1763
I14
sS'natural'
p1764
I14
sS'st'
p1765
I8
sS'so'
p1766
I135
sS'course'
p1767
I22
sS'experiments'
p1768
I5
sS'tendency'
p1769
I10
sS'derive'
p1770
I5
sS'thereby'
p1771
I5
sS'nation'
p1772
I13
sS'compelled'
p1773
I6
sS'square'
p1774
I8
sS'formula'
p1775
I5
sS'quite'
p1776
I14
sS'training'
p1777
I13
sS'wrong'
p1778
I7
sS'spoken'
p1779
I6
sS'vote'
p1780
I8
sS'open'
p1781
I46
sS'city'
p1782
I25
sS'indicate'
p1783
I17
sS'2'
p1784
I18
sS'future'
p1785
I15
sS'russia'
p1786
I8
sS'sam'
p1787
I5
sS'turned'
p1788
I76
sS'argument'
p1789
I6
sS'say'
p1790
I129
sS'instructed'
p1791
I6
sS'note'
p1792
I20
sS'take'
p1793
I138
sS'destroy'
p1794
I12
sS'average'
p1795
I6
sS'phil'
p1796
I6
sS'federal'
p1797
I14
sS'slow'
p1798
I5
sS'going'
p1799
I170
sS'equipped'
p1800
I8
sS'artist'
p1801
I6
sS'where'
p1802
I63
sS'jumped'
p1803
I5
sS'jobs'
p1804
I5
sS'clayton'
p1805
I5
sS'west'
p1806
I23
sS'vacation'
p1807
I5
sS'breath'
p1808
I6
sS'wants'
p1809
I31
sS'enable'
p1810
I12
sS'observe'
p1811
I5
sS'former'
p1812
I7
sS'policies'
p1813
I7
sS'ive'
p1814
I13
sS'wired'
p1815
I5
sS'costs'
p1816
I13
sS'dimension'
p1817
I5
sS'summer'
p1818
I6
sS'being'
p1819
I46
sS'rest'
p1820
I17
sS'around'
p1821
I42
sS'world'
p1822
I46
sS'dare'
p1823
I5
sS'satisfactory'
p1824
I6
sS'refer'
p1825
I19
sS'power'
p1826
I32
sS'leadership'
p1827
I8
sS'stone'
p1828
I7
sS'industry'
p1829
I14
sS'act'
p1830
I27
sS'mean'
p1831
I26
sS'her'
p1832
I377
sS'hes'
p1833
I9
sS'complete'
p1834
I18
sS'with'
p1835
I413
sS'volume'
p1836
I8
sS'pull'
p1837
I15
sS'gone'
p1838
I25
sS'af'
p1839
I49
sS'certain'
p1840
I22
sS'aj'
p1841
I6
sS'am'
p1842
I25
sS'an'
p1843
I310
sS'as'
p1844
I395
sS'at'
p1845
I235
sS'congress'
p1846
I13
sS'original'
p1847
I8
sS'consider'
p1848
I22
sS'caused'
p1849
I16
sS'causes'
p1850
I6
sS'smile'
p1851
I7
sS'returned'
p1852
I35
sS'condition'
p1853
I5
sS'adjust'
p1854
I5
sS'past'
p1855
I15
sS'pass'
p1856
I21
sS'section'
p1857
I5
sS'method'
p1858
I11
sS'contrast'
p1859
I16
sS'full'
p1860
I22
sS'experience'
p1861
I17
sS'prior'
p1862
I25
sS'pick'
p1863
I17
sS'action'
p1864
I24
sS'followed'
p1865
I8
sS'select'
p1866
I8
sS'more'
p1867
I183
sS'door'
p1868
I42
sS'company'
p1869
I14
sS'science'
p1870
I7
sS'sent'
p1871
I43
sS'learn'
p1872
I36
sS'male'
p1873
I5
sS'accept'
p1874
I14
sS'states'
p1875
I27
sS'sense'
p1876
I31
sS'station'
p1877
I7
sS'axis'
p1878
I5
sS'information'
p1879
I22
sS'plans'
p1880
I15
sS'plane'
p1881
I7
sS'director'
p1882
I6
sS'granted'
p1883
I5
sS'trade'
p1884
I8
sS'attitude'
p1885
I6
sS'paper'
p1886
I9
sS'its'
p1887
I162
sS'always'
p1888
I46
sS'found'
p1889
I59
sS'england'
p1890
I12
sS'upstairs'
p1891
I6
sS'reduce'
p1892
I17
sS'operation'
p1893
I8
sS'really'
p1894
I23
sS'try'
p1895
I60
sS'research'
p1896
I12
sS'belief'
p1897
I8
sS'imagine'
p1898
I9
sS'number'
p1899
I25
sS'guess'
p1900
I5
sS'introduction'
p1901
I7
sS'threatening'
p1902
I6
sS'immediate'
p1903
I6
sS'stairs'
p1904
I6
sS'determined'
p1905
I22
sS'marriage'
p1906
I7
sS'sell'
p1907
I14
sS'play'
p1908
I23
sS'plan'
p1909
I33
sS'sometimes'
p1910
I12
sS'cover'
p1911
I13
sS'artistic'
p1912
I5
sS'stockholders'
p1913
I5
sS'failed'
p1914
I21
sS'closely'
p1915
I9
sS'enemy'
p1916
I9
sS'cry'
p1917
I5
sS'cease'
p1918
I6
sS'river'
p1919
I8
sS'set'
p1920
I49
sS'sex'
p1921
I7
sS'see'
p1922
I167
sS'sea'
p1923
I11
sS'knees'
p1924
I6
sS'europe'
p1925
I16
sS'incident'
p1926
I7
sS'loan'
p1927
I6
sS'community'
p1928
I13
sS'church'
p1929
I30
sS'equivalent'
p1930
I8
sS'firm'
p1931
I5
sS'fire'
p1932
I7
sS'systematic'
p1933
I5
sS'uncertain'
p1934
I5
sS'budget'
p1935
I8
sS'receive'
p1936
I12
sS'real'
p1937
I24
sS'hoping'
p1938
I6
sS'owen'
p1939
I6
sS'rules'
p1940
I7
sS'alert'
p1941
I10
sS'necessity'
p1942
I6
sS'recent'
p1943
I7
sS'concrete'
p1944
I6
sS'listening'
p1945
I12
sS'admission'
p1946
I11
sS'eager'
p1947
I9
sS'parents'
p1948
I13
sS'location'
p1949
I5
sS'surprised'
p1950
I10
sS'couple'
p1951
I14
sS'pertinent'
p1952
I7
sS'continue'
p1953
I44
sS'methods'
p1954
I14
sS'spring'
p1955
I6
sS'sight'
p1956
I6
sS'religion'
p1957
I5
sS'be'
p1958
I1473
sS'relating'
p1959
I11
sS'anything'
p1960
I46
sS'repair'
p1961
I6
sS'appropriate'
p1962
I14
sS'primarily'
p1963
I8
sS'specifically'
p1964
I5
sS'suit'
p1965
I6
sS'jewish'
p1966
I7
sS'line'
p1967
I17
sS'considerable'
p1968
I8
sS'up'
p1969
I257
sS'us'
p1970
I106
sS'influence'
p1971
I11
sS'walked'
p1972
I26
sS'came'
p1973
I108
sS'seemed'
p1974
I119
sS'send'
p1975
I18
sS'resources'
p1976
I8
sS'continues'
p1977
I12
sS'continued'
p1978
I30
sS'marry'
p1979
I8
sS'anxious'
p1980
I10
sS'threat'
p1981
I7
sS'index'
p1982
I6
sS'expressed'
p1983
I5
sS'led'
p1984
I31
sS'drill'
p1985
I7
sS'let'
p1986
I41
sS'consideration'
p1987
I7
sS'technical'
p1988
I10
sS'across'
p1989
I28
sS'resulting'
p1990
I5
sS'defeat'
p1991
I5
sS'makes'
p1992
I7
sS'standing'
p1993
I6
sS'next'
p1994
I60
sS'doubt'
p1995
I7
sS'occurred'
p1996
I6
sS'baby'
p1997
I7
sS'animals'
p1998
I6
sS'this'
p1999
I393
sS'challenge'
p2000
I12
sS'process'
p2001
I8
sS'rode'
p2002
I8
sS'bend'
p2003
I8
sS'counter'
p2004
I7
sS'allow'
p2005
I30
sS'move'
p2006
I44
sS'chosen'
p2007
I9
sS'kiss'
p2008
I5
sS'realize'
p2009
I18
sS'sufficiently'
p2010
I16
sS'truth'
p2011
I8
sS'stock'
p2012
I12
sS'doing'
p2013
I9
sS'society'
p2014
I14
sS'cromwell'
p2015
I5
sS'could'
p2016
I70
sS'scene'
p2017
I10
sS'start'
p2018
I26
sS'system'
p2019
I25
sS'interests'
p2020
I5
sS'lot'
p2021
I11
sS'listeners'
p2022
I6
sS'devotion'
p2023
I9
sS'clearly'
p2024
I9
sS'linda'
p2025
I7
sS'face'
p2026
I31
sS'atmosphere'
p2027
I8
sS'bring'
p2028
I53
sS'bedroom'
p2029
I5
sS'promote'
p2030
I10
sS'should'
p2031
I75
sS'hope'
p2032
I21
sS'meant'
p2033
I25
sS'handle'
p2034
I15
sS'listened'
p2035
I10
sS'nuclear'
p2036
I8
sS'youll'
p2037
I8
sS'ends'
p2038
I6
sS'invited'
p2039
I11
sS'adjusted'
p2040
I6
sS'cm'
p2041
I8
sS'conclude'
p2042
I5
sS'louisiana'
p2043
I5
sS'sales'
p2044
I5
sS'site'
p2045
I8
sS'upon'
p2046
I36
sS'off'
p2047
I71
sS'command'
p2048
I7
sS'wet'
p2049
I6
sS'increased'
p2050
I7
sS'government'
p2051
I27
sS'become'
p2052
I52
sS'amendment'
p2053
I6
sS'avoid'
p2054
I19
sS'does'
p2055
I30
sS'stage'
p2056
I6
sS'swimming'
p2057
I6
sS'letters'
p2058
I9
sS'theyd'
p2059
I5
sS'roads'
p2060
I5
sS'mere'
p2061
I5
sS'quiney'
p2062
I5
sS'placed'
p2063
I5
sS'monument'
p2064
I10
sS'contribute'
p2065
I23
sS'details'
p2066
I6
sS'repeat'
p2067
I8
sS'chance'
p2068
I21
sS'exposure'
p2069
I6
sS'compete'
p2070
I6
sS'desirable'
p2071
I6
sS'voted'
p2072
I5
sS'told'
p2073
I38
sS'protection'
p2074
I5
sS'daughter'
p2075
I9
sS'study'
p2076
I27
sS'secure'
p2077
I5
sS'highly'
p2078
I6
sS'opportunities'
p2079
I9
sS'glance'
p2080
I5
sS'total'
p2081
I7
sS'sarah'
p2082
I5
sS'word'
p2083
I12
sS'jess'
p2084
I6
sS'crest'
p2085
I6
sS'work'
p2086
I96
sS'refusing'
p2087
I6
sS'india'
p2088
I6
sS'provide'
p2089
I51
sS'law'
p2090
I17
sS'green'
p2091
I5
sS'order'
p2092
I86
sS'office'
p2093
I22
sS'devote'
p2094
I10
sS'zen'
p2095
I8
sS'production'
p2096
I9
sS'then'
p2097
I81
sS'them'
p2098
I243
sS'thee'
p2099
I5
sS'break'
p2100
I24
sS'they'
p2101
I284
sS'bank'
p2102
I9
sS'oxygen'
p2103
I5
sS'slavery'
p2104
I6
sS'reasonable'
p2105
I11
sS'lifted'
p2106
I5
sS'network'
p2107
I5
sS'standard'
p2108
I10
sS'organize'
p2109
I7
sS'another'
p2110
I64
sS'electronic'
p2111
I6
sS'illustrate'
p2112
I6
sS'neck'
p2113
I6
sS'approximately'
p2114
I5
sS'observations'
p2115
I5
sS'john'
p2116
I15
sS'dogs'
p2117
I7
sS'powers'
p2118
I7
sS'failing'
p2119
I7
sS'return'
p2120
I45
sS'impelled'
p2121
I5
sS'forced'
p2122
I29
sS'strength'
p2123
I18
sS'materials'
p2124
I7
sS'forces'
p2125
I14
sS'what'
p2126
I188
sS'germany'
p2127
I10
sS'grave'
p2128
I7
sS'reserve'
p2129
I5
sS'resemblance'
p2130
I5
sS'adequate'
p2131
I8
sS'do'
p2132
I307
sS'preferred'
p2133
I7
sS'du'
p2134
I6
sS'dr'
p2135
I9
sS'secretary'
p2136
I13
sS'cattle'
p2137
I11
sS'techniques'
p2138
I9
sS'away'
p2139
I39
sS'unable'
p2140
I29
sS'deputies'
p2141
I5
sS'we'
p2142
I208
sS'clues'
p2143
I6
sS'kitchen'
p2144
I9
sS'ill'
p2145
I12
sS'speak'
p2146
I39
sS'applied'
p2147
I30
sS'east'
p2148
I12
sS'air'
p2149
I10
sS'aim'
p2150
I10
sS'applies'
p2151
I11
sS'aid'
p2152
I14
sS'property'
p2153
I10
sS'amount'
p2154
I9
sS'wheel'
p2155
I6
sS'hang'
p2156
I8
sS'rain'
p2157
I5
sS'hand'
p2158
I36
sS'kept'
p2159
I7
sS'piazza'
p2160
I5
sS'the'
p2161
I4962
sS'gods'
p2162
I8
sS'thanks'
p2163
I8
sS'adding'
p2164
I5
sS'belongs'
p2165
I11
sS'board'
p2166
I15
sS'theyre'
p2167
I8
sS'night'
p2168
I14
sS'born'
p2169
I7
sS'humor'
p2170
I5
sS'asking'
p2171
I13
sS'denied'
p2172
I7
sS'post'
p2173
I10
sS'properties'
p2174
I5
sS'prisoners'
p2175
I6
sS'bound'
p2176
I11
sS'fight'
p2177
I16
sS'way'
p2178
I122
sS'was'
p2179
I813
sS'war'
p2180
I22
sS'true'
p2181
I19
sS'maximum'
p2182
I7
sS'evidence'
p2183
I16
sS'promised'
p2184
I9
sS'physical'
p2185
I13
sS'reality'
p2186
I8
sS'interested'
p2187
I6
sS'holding'
p2188
I5
sS'test'
p2189
I12
sS'brothers'
p2190
I6
sS'welcome'
p2191
I6
sS'concept'
p2192
I9
sS'dance'
p2193
I12
sS'supplement'
p2194
I5
sS'grateful'
p2195
I7
sS'battle'
p2196
I10
sS'devoted'
p2197
I26
sS'certainly'
p2198
I10
sS'hurry'
p2199
I6
sS'rhythm'
p2200
I5
sS'brown'
p2201
I11
sS'trouble'
p2202
I13
sS'presented'
p2203
I7
sS'turns'
p2204
I8
sS'gun'
p2205
I9
sS'sidewalk'
p2206
I5
sS'brave'
p2207
I6
sS'discover'
p2208
I11
sS'cost'
p2209
I18
sS'appear'
p2210
I37
sS'assistance'
p2211
I7
sS'uniform'
p2212
I5
sS'appears'
p2213
I25
sS'change'
p2214
I28
sS'sending'
p2215
I5
sS'petitioner'
p2216
I6
sS'trial'
p2217
I14
sS'market'
p2218
I9
sS'prove'
p2219
I14
sS'live'
p2220
I39
sS'entrance'
p2221
I12
sS'club'
p2222
I7
sS'clue'
p2223
I10
sS'car'
p2224
I18
sS'can'
p2225
I109
sS'heart'
p2226
I15
sS'dedicated'
p2227
I9
sS'paused'
p2228
I6
sS'occur'
p2229
I11
sS'discussion'
p2230
I6
sS'means'
p2231
I20
sS'species'
p2232
I5
sS'write'
p2233
I42
sS'sacrifice'
p2234
I6
sS'southern'
p2235
I9
sS'produce'
p2236
I19
sS'bear'
p2237
I9
sS'remember'
p2238
I31
sS'indeed'
p2239
I7
sS'still'
p2240
I43
sS'forms'
p2241
I5
sS'window'
p2242
I7
sS'introduce'
p2243
I5
sS'not'
p2244
I453
sS'now'
p2245
I83
sS'nor'
p2246
I8
sS'wont'
p2247
I9
sS'james'
p2248
I5
sS'drop'
p2249
I6
sS'entirely'
p2250
I11
sS'em'
p2251
I5
sS'fired'
p2252
I5
sS'hurried'
p2253
I6
sS'happen'
p2254
I23
sS'shown'
p2255
I7
sS'accomplish'
p2256
I8
sS'opened'
p2257
I6
sS'space'
p2258
I9
sS'looking'
p2259
I14
sS'obligation'
p2260
I6
sS'marine'
p2261
I6
sS'care'
p2262
I21
sS'transition'
p2263
I6
sS'blind'
p2264
I6
sS'yourself'
p2265
I6
sS'directly'
p2266
I25
sS'message'
p2267
I10
sS'drove'
p2268
I5
sS'size'
p2269
I7
sS'friend'
p2270
I12
sS'that'
p2271
I717
sS'recover'
p2272
I5
sS'equipment'
p2273
I6
sS'objective'
p2274
I16
sS'begin'
p2275
I32
sS'america'
p2276
I13
sS'attempting'
p2277
I10
sS'mrs'
p2278
I27
sS'title'
p2279
I6
sS'proportion'
p2280
I6
sS'husband'
p2281
I16
sS'elected'
p2282
I5
sS'concern'
p2283
I10
sg554
I15
sS'notice'
p2284
I6
sS'blame'
p2285
I6
sS'article'
p2286
I6
sS'pray'
p2287
I5
sS'comes'
p2288
I22
sS'exploit'
p2289
I5
sS'learning'
p2290
I12
sS'proved'
p2291
I13
sS'soil'
p2292
I7
sS'develop'
p2293
I34
sS'finish'
p2294
I6
sS'tradition'
p2295
I6
sS'touch'
p2296
I14
sS'speed'
p2297
I6
sS'death'
p2298
I31
sS'thinking'
p2299
I8
sS'instructions'
p2300
I12
sS'swim'
p2301
I5
sS'read'
p2302
I35
sS'using'
p2303
I6
sS'lady'
p2304
I8
sS'rear'
p2305
I7
sS't'
p2306
I5
sS'twelve'
p2307
I5
sS'exposed'
p2308
I12
sS'business'
p2309
I34
sS'exciting'
p2310
I5
sS'throw'
p2311
I9
sS'central'
p2312
I13
sS'greatly'
p2313
I7
sS'testimony'
p2314
I5
sS'referred'
p2315
I29
sS'youd'
p2316
I5
sS'your'
p2317
I99
sS'weight'
p2318
I5
sS'prepare'
p2319
I11
sS'low'
p2320
I9
sS'billion'
p2321
I11
sS'trying'
p2322
I94
sS'hire'
p2323
I6
sS'expect'
p2324
I40
sS'describe'
p2325
I18
sS'moved'
p2326
I28
sS'you'
p2327
I393
sS'poor'
p2328
I7
sS'massachusetts'
p2329
I5
sS'suited'
p2330
I8
sS'pool'
p2331
I7
sS'fiscal'
p2332
I6
sS'pointing'
p2333
I5
sS'month'
p2334
I9
sS'ceased'
p2335
I6
sS'religious'
p2336
I8
sS'referring'
p2337
I11
sS'readiness'
p2338
I7
sS'safety'
p2339
I5
sS'very'
p2340
I50
sS'decide'
p2341
I11
sS'louis'
p2342
I5
sS'mile'
p2343
I5
sS'value'
p2344
I15
sS'emotions'
p2345
I6
sS'thickness'
p2346
I6
sS'loose'
p2347
I6
sS'answers'
p2348
I7
sS'ahead'
p2349
I11
sS'losses'
p2350
I8
sS'family'
p2351
I16
sS'ask'
p2352
I34
sS'trained'
p2353
I5
sS'conventional'
p2354
I5
sS'taken'
p2355
I28
sS'excuse'
p2356
I7
sS'impulse'
p2357
I7
sS'nine'
p2358
I6
sS'history'
p2359
I16
sS'pushed'
p2360
I5
sS'tried'
p2361
I85
sS'tries'
p2362
I5
sg5
I1697
sS'dream'
p2363
I7
sS'help'
p2364
I71
sS'committee'
p2365
I7
sS'committed'
p2366
I10
sS'hell'
p2367
I10
sS'fool'
p2368
I5
sS'evening'
p2369
I9
sS'food'
p2370
I12
sS'desperately'
p2371
I5
sS'fully'
p2372
I11
sS'stopped'
p2373
I9
sS'sustain'
p2374
I6
sS'drink'
p2375
I7
sS'houses'
p2376
I5
sS'reason'
p2377
I32
sS'base'
p2378
I6
sS'put'
p2379
I75
sS'terrible'
p2380
I5
sS'american'
p2381
I35
sS'automobile'
p2382
I5
sS'assign'
p2383
I7
sS'talked'
p2384
I15
sS'miss'
p2385
I16
sS'horse'
p2386
I10
sS'toward'
p2387
I13
sS'wasnt'
p2388
I13
sS'substantial'
p2389
I10
sS'quote'
p2390
I9
sS'kay'
p2391
I5
sS'clear'
p2392
I26
sS'clean'
p2393
I8
sS'usual'
p2394
I8
sS'justice'
p2395
I9
sS'less'
p2396
I23
sS'pretty'
p2397
I10
sS'basement'
p2398
I5
sS'close'
p2399
I60
sS'probably'
p2400
I16
sS'conditions'
p2401
I12
sS'both'
p2402
I53
sS'sensitive'
p2403
I11
sS'liked'
p2404
I15
sS'whatever'
p2405
I10
sS'likes'
p2406
I5
sS'described'
p2407
I6
sS'lived'
p2408
I9
sS'partly'
p2409
I5
sS'look'
p2410
I85
sS'while'
p2411
I28
sS'ought'
p2412
I42
sS'shift'
p2413
I7
sS'guide'
p2414
I7
sS'ready'
p2415
I46
sS'grant'
p2416
I7
sS'belong'
p2417
I13
sS'used'
p2418
I124
sS'lie'
p2419
I10
sS'obviously'
p2420
I6
sS'elect'
p2421
I5
sS'march'
p2422
I9
sS'evaluate'
p2423
I5
sS'success'
p2424
I13
sS'fathers'
p2425
I6
sS'some'
p2426
I121
sS'sympathetic'
p2427
I7
sS'run'
p2428
I37
sS'step'
p2429
I8
sS'abroad'
p2430
I5
sS'faith'
p2431
I6
sS'block'
p2432
I9
sS'within'
p2433
I18
sS'himself'
p2434
I91
sS'russian'
p2435
I6
sS'hair'
p2436
I5
sS'accustomed'
p2437
I5
sS'similar'
p2438
I32
sS'ordered'
p2439
I7
sS'objection'
p2440
I5
sS'fears'
p2441
I9
sS'application'
p2442
I7
sS'department'
p2443
I21
sS'draw'
p2444
I12
sS'william'
p2445
I10
sS'smiled'
p2446
I5
sS'structure'
p2447
I6
sS'e'
p2448
I6
sS'practically'
p2449
I6
sS'required'
p2450
I36
sS'proposition'
p2451
I5
sS'go'
p2452
I181
sS'positions'
p2453
I5
sS'enforce'
p2454
I5
sS'jump'
p2455
I8
sS'colonel'
p2456
I6
sS'experiment'
p2457
I10
sS'commercial'
p2458
I5
sS'products'
p2459
I7
sS'win'
p2460
I12
sS'manage'
p2461
I7
sS'addressed'
p2462
I5
sS'remains'
p2463
I10
sS'hudson'
p2464
I12
sS'started'
p2465
I29
sS'appointed'
p2466
I6
sS'ride'
p2467
I7
sS'crossed'
p2468
I5
sS'meet'
p2469
I42
sS'control'
p2470
I26
sS'sought'
p2471
I16
sS'dominant'
p2472
I6
sS'hesitate'
p2473
I6
sS'poetry'
p2474
I5
sS'farm'
p2475
I12
sS'mentioned'
p2476
I5
sS'front'
p2477
I15
sS'university'
p2478
I9
sS'mode'
p2479
I5
sS'measure'
p2480
I18
sS'special'
p2481
I16
sS'cause'
p2482
I25
sS'completely'
p2483
I13
sS'route'
p2484
I5
sS'powerful'
p2485
I5
sS'submit'
p2486
I8
sS'management'
p2487
I6
sS'attach'
p2488
I6
sS'attack'
p2489
I14
sS'exactly'
p2490
I11
sS'herself'
p2491
I21
sS'bed'
p2492
I16
sS'defense'
p2493
I7
sS'exhibit'
p2494
I5
sS'need'
p2495
I62
sS'able'
p2496
I116
sS'connected'
p2497
I7
sS'parker'
p2498
I7
sS'soldiers'
p2499
I8
sS'based'
p2500
I5
sS'employed'
p2501
I5
sS'achieve'
p2502
I14
sS'overall'
p2503
I6
sS'joint'
p2504
I6
sS'procedures'
p2505
I7
sS'she'
p2506
I234
sS'wish'
p2507
I25
sS'grab'
p2508
I5
sS'danger'
p2509
I5
sS'tend'
p2510
I30
sS'state'
p2511
I56
sS'comparable'
p2512
I8
sS'importance'
p2513
I13
sS'key'
p2514
I15
sS'approval'
p2515
I5
sS'problem'
p2516
I38
sS'thank'
p2517
I5
sS'limits'
p2518
I5
sS'admit'
p2519
I13
sS'poem'
p2520
I8
sS'addition'
p2521
I42
sS'cent'
p2522
I7
sS'slowly'
p2523
I13
sS'treat'
p2524
I10
sS'recognize'
p2525
I14
sS'poet'
p2526
I10
sS'shoulders'
p2527
I6
sS'harder'
p2528
I7
sS'surface'
p2529
I13
sS'capture'
p2530
I7
sS'tappet'
p2531
I5
sS'strange'
p2532
I10
sS'party'
p2533
I16
sS'effect'
p2534
I22
sS'compared'
p2535
I17
sS'frequently'
p2536
I9
sg108
I433
sS'increasingly'
p2537
I8
sS'sources'
p2538
I5
sS'immediately'
p2539
I12
sS'loss'
p2540
I7
sS'lincoln'
p2541
I5
sS'necessary'
p2542
I49
sS'lost'
p2543
I7
sS'shed'
p2544
I6
sS'belonged'
p2545
I9
sS'phenomena'
p2546
I5
sS'home'
p2547
I47
sS'broad'
p2548
I6
sS'delaware'
p2549
I5
sS'reaching'
p2550
I6
sS'freedom'
p2551
I18
sS'washington'
p2552
I14
sS'additional'
p2553
I17
sS'north'
p2554
I18
sS'he'
p2555
I757
sS'converted'
p2556
I9
sS'display'
p2557
I5
sS'persuaded'
p2558
I11
sS'rule'
p2559
I5
sS'education'
p2560
I12
sS'stay'
p2561
I27
sS'friends'
p2562
I13
sS'determination'
p2563
I5
sS'captain'
p2564
I6
sS'whose'
p2565
I10
sS'teaching'
p2566
I6
sS'solution'
p2567
I12
sS'force'
p2568
I22
sS'likely'
p2569
I60
sS'even'
p2570
I75
sS'new'
p2571
I108
sS'ever'
p2572
I25
sS'active'
p2573
I8
sS'100'
p2574
I7
sS'credit'
p2575
I13
sS'permit'
p2576
I19
sS'fantastic'
p2577
I5
sS'county'
p2578
I5
sS'moral'
p2579
I6
sS'guests'
p2580
I6
sS'army'
p2581
I7
sS'call'
p2582
I39
sS'recommend'
p2583
I7
sS'survive'
p2584
I9
sS'type'
p2585
I16
sS'tell'
p2586
I56
sS'warn'
p2587
I5
sS'warm'
p2588
I6
sS'room'
p2589
I52
sS'rights'
p2590
I7
sS'akin'
p2591
I8
sS'root'
p2592
I5
sS'give'
p2593
I95
sS'answer'
p2594
I35
sS'president'
p2595
I21
sS'purchase'
p2596
I7
sS'attempt'
p2597
I53
sS'third'
p2598
I11
sS'maintain'
p2599
I21
sS'operate'
p2600
I19
sS'operations'
p2601
I5
sS'better'
p2602
I39
sS'overcome'
p2603
I6
sS'meat'
p2604
I6
sS'went'
p2605
I120
sS'side'
p2606
I36
sS'luck'
p2607
I6
sS'taught'
p2608
I10
sS'gorton'
p2609
I6
sS'restricted'
p2610
I7
sS'content'
p2611
I5
sS'reader'
p2612
I6
sS'surprise'
p2613
I9
sS'turning'
p2614
I6
sS'struggle'
p2615
I8
sS'somewhat'
p2616
I12
sS'hadnt'
p2617
I5
sS'begins'
p2618
I12
sS'enabled'
p2619
I5
sS'matter'
p2620
I18
sS'persuade'
p2621
I6
sS'modern'
p2622
I14
sS'mind'
p2623
I29
sS'seem'
p2624
I87
sS'seek'
p2625
I28
sS'regular'
p2626
I6
sS'medical'
p2627
I10
sS'dog'
p2628
I6
sS'principle'
p2629
I7
sS'attempts'
p2630
I16
sS'judges'
p2631
I5
sS'explain'
p2632
I16
sS'above'
p2633
I16
sS'stop'
p2634
I37
sS'coast'
p2635
I5
sS'earn'
p2636
I5
sS'bar'
p2637
I6
sS'ears'
p2638
I8
sS'reference'
p2639
I18
sS'decided'
p2640
I40
sS'subject'
p2641
I31
sS'said'
p2642
I99
sS'suggested'
p2643
I8
sS'against'
p2644
I30
sS'contribution'
p2645
I11
sS'appeared'
p2646
I20
sS'height'
p2647
I6
sS'proceeded'
p2648
I6
sS'commission'
p2649
I7
sS'interest'
p2650
I31
sS'basic'
p2651
I14
sS'personally'
p2652
I6
sS'near'
p2653
I13
sS'suppose'
p2654
I6
sS'seven'
p2655
I6
sS'is'
p2656
I970
sS'it'
p2657
I802
sS'im'
p2658
I49
sS'in'
p2659
I1017
sS'id'
p2660
I24
sS'if'
p2661
I139
sS'make'
p2662
I208
sS'entitled'
p2663
I16
sS'opportunity'
p2664
I33
sS'settled'
p2665
I12
sS'youre'
p2666
I18
sS'claims'
p2667
I15
sS'unfair'
p2668
I6
sS'assigned'
p2669
I17
sS'identify'
p2670
I9
sS'human'
p2671
I13
sS'yet'
p2672
I25
sS'save'
p2673
I16
sS'shoulder'
p2674
I5
sS'deal'
p2675
I18
sS'somehow'
p2676
I8
sS'dead'
p2677
I7
sS'dear'
p2678
I7
sS'popular'
p2679
I7
sS'kohnstamm'
p2680
I5
sS'down'
p2681
I126
sS'communists'
p2682
I6
sS'initial'
p2683
I6
sS'form'
p2684
I35
sS'landing'
p2685
I5
sS'failure'
p2686
I17
sS'attached'
p2687
I14
sS'economic'
p2688
I13
sS'drive'
p2689
I16
sS'ship'
p2690
I12
sS'handed'
p2691
I10
sS'felt'
p2692
I26
sS'fell'
p2693
I6
sS'jones'
p2694
I5
sS'assume'
p2695
I14
sS'daily'
p2696
I5
sS'managed'
p2697
I18
sS'manager'
p2698
I5
sS'depend'
p2699
I5
sS'technique'
p2700
I5
sS'father'
p2701
I19
sS'answered'
p2702
I7
sS'finally'
p2703
I16
sS'me'
p2704
I255
sS'advised'
p2705
I6
sS'did'
p2706
I63
sS'permits'
p2707
I8
sS'round'
p2708
I8
sS'international'
p2709
I8
sS'wait'
p2710
I10
sS'useful'
p2711
I6
sS'merely'
p2712
I10
sS'everybody'
p2713
I7
sS'troops'
p2714
I6
sS'visit'
p2715
I44
sS'france'
p2716
I6
sS'downtown'
p2717
I5
sS'effort'
p2718
I40
sS'fly'
p2719
I10
sS'wouldnt'
p2720
I13
sS'growing'
p2721
I5
sS'making'
p2722
I15
sS'arrive'
p2723
I5
sS'claim'
p2724
I12
sS'sample'
p2725
I7
sS'council'
p2726
I5
sS'may'
p2727
I107
sS'fed'
p2728
I7
sS'designed'
p2729
I34
sS'grow'
p2730
I15
sS'man'
p2731
I101
sS'talk'
p2732
I48
sS'pointed'
p2733
I6
sS'shake'
p2734
I6
sS'police'
p2735
I14
sS'interesting'
p2736
I9
sS'policy'
p2737
I14
sS'mail'
p2738
I7
sS'main'
p2739
I8
sS'finance'
p2740
I7
sS'rock'
p2741
I8
sS'girl'
p2742
I14
sS'canada'
p2743
I5
sS'living'
p2744
I13
sS'correct'
p2745
I8
sS'california'
p2746
I6
sS'advance'
p2747
I8
sS'thing'
p2748
I29
sS'think'
p2749
I64
sS'carry'
p2750
I23
sS'rome'
p2751
I7
sS'anyone'
p2752
I19
sS'moscow'
p2753
I5
sS'10'
p2754
I12
sS'12'
p2755
I7
sS'15'
p2756
I8
sS'14'
p2757
I8
sS'clung'
p2758
I8
sS'200'
p2759
I5
sS'normal'
p2760
I16
sS'track'
p2761
I5
sS'enter'
p2762
I20
sS'paid'
p2763
I23
sS'especially'
p2764
I11
sS'gyro'
p2765
I8
sS'shop'
p2766
I5
sS'show'
p2767
I58
sS'contemporary'
p2768
I8
sS'therapist'
p2769
I7
sS'corner'
p2770
I7
sS'black'
p2771
I8
sS'get'
p2772
I196
sS'nearly'
p2773
I9
sS'yield'
p2774
I10
sS'morning'
p2775
I5
sS'declared'
p2776
I7
sS'relative'
p2777
I6
sS'wonder'
p2778
I8
sS'enough'
p2779
I129
sS'reading'
p2780
I12
sS'according'
p2781
I78
sS'among'
p2782
I21
sS'spelman'
p2783
I5
sS'mark'
p2784
I9
sS'offered'
p2785
I10
sS'those'
p2786
I82
sS'sound'
p2787
I16
sS'middle'
p2788
I6
sS'doctor'
p2789
I10
sS'pay'
p2790
I42
sS'same'
p2791
I37
sS'oil'
p2792
I6
sS'assist'
p2793
I9
sS'running'
p2794
I8
sS'largely'
p2795
I7
sS'amounts'
p2796
I7
sS'money'
p2797
I27
sS'4'
p2798
I7
sS'serves'
p2799
I7
sS'chamber'
p2800
I5
sS'audience'
p2801
I13
sS'served'
p2802
I11
sS'critical'
p2803
I5
sS'seconds'
p2804
I8
sS'refers'
p2805
I12
sS'stations'
p2806
I5
sS'meaning'
p2807
I15
sS'practical'
p2808
I6
sS'youve'
p2809
I7
sS'road'
p2810
I19
sS'references'
p2811
I5
sS'arranged'
p2812
I6
sS'mary'
p2813
I6
sS'general'
p2814
I34
sS'examine'
p2815
I9
sS'file'
p2816
I14
sS'film'
p2817
I5
sS'fill'
p2818
I11
sS'again'
p2819
I39
sS'field'
p2820
I17
sS'students'
p2821
I19
sS'represent'
p2822
I12
sS'forget'
p2823
I10
sS'forbidden'
p2824
I5
sS'returning'
p2825
I9
sS'applicable'
p2826
I5
sS'lawyer'
p2827
I5
sS'further'
p2828
I19
sS'tribute'
p2829
I10
sS'movement'
p2830
I11
sS'operating'
p2831
I7
sS'published'
p2832
I8
sS'narrow'
p2833
I7
sS'readily'
p2834
I5
sS'eye'
p2835
I9
sS'two'
p2836
I59
sS'particular'
p2837
I17
sS'town'
p2838
I19
sS'hour'
p2839
I14
sS'recall'
p2840
I8
sS'compare'
p2841
I8
sS'share'
p2842
I8
sS'minimum'
p2843
I7
sS'attain'
p2844
I10
sS'needs'
p2845
I23
sS'comfort'
p2846
I8
sS'sacred'
p2847
I5
sS'advice'
p2848
I6
sS'blood'
p2849
I8
sS'response'
p2850
I15
sS'responsibility'
p2851
I9
sS'pleasure'
p2852
I5
sS'industrial'
p2853
I8
sS'through'
p2854
I56
sS'existence'
p2855
I7
sS'25'
p2856
I5
sS'mystery'
p2857
I6
sS'everyone'
p2858
I12
sS'mental'
p2859
I5
sS'house'
p2860
I49
sS'energy'
p2861
I9
sS'hard'
p2862
I49
sS'idea'
p2863
I15
sS'extended'
p2864
I13
sS'difficulty'
p2865
I7
sS'beginning'
p2866
I32
sS'benefits'
p2867
I5
sS'indebted'
p2868
I6
sS'dont'
p2869
I45
sS'done'
p2870
I22
sS'paint'
p2871
I7
sS'statement'
p2872
I10
sS'mama'
p2873
I5
sS'park'
p2874
I5
sS'part'
p2875
I23
sS'favorable'
p2876
I7
sS'believe'
p2877
I21
sg1084
I8
sS'contrary'
p2878
I21
sS'supposed'
p2879
I31
sS'orders'
p2880
I11
sS'mountain'
p2881
I5
sS'majority'
p2882
I5
sS'build'
p2883
I28
sS'solve'
p2884
I6
sS'most'
p2885
I67
sS'charm'
p2886
I5
sS'services'
p2887
I10
sS'thomas'
p2888
I8
sS'particularly'
p2889
I12
sS'relation'
p2890
I28
sS'find'
p2891
I103
sS'8'
p2892
I7
sS'permission'
p2893
I9
sS'express'
p2894
I8
sS'courage'
p2895
I9
sS'resolve'
p2896
I6
sS'remove'
p2897
I15
sS'tended'
p2898
I9
sS'individual'
p2899
I15
sS'degree'
p2900
I21
sS'please'
p2901
I6
sS'aircraft'
p2902
I5
sS'annual'
p2903
I7
sS'foreign'
p2904
I6
sS'point'
p2905
I45
sS'raise'
p2906
I13
sS'create'
p2907
I20
sS'secret'
p2908
I6
sS'meeting'
p2909
I5
sS'understand'
p2910
I21
sS'elections'
p2911
I6
sS'fun'
p2912
I7
sS'century'
p2913
I9
sS'itself'
p2914
I25
sS'anode'
p2915
I10
sS'limit'
p2916
I15
sS'emphasize'
p2917
I7
sS'development'
p2918
I19
sS'husbands'
p2919
I5
sS'purpose'
p2920
I12
sS'task'
p2921
I8
sS'organization'
p2922
I10
sS'spend'
p2923
I14
sS'shape'
p2924
I8
sS'alternative'
p2925
I6
sS'cut'
p2926
I26
sS'subjects'
p2927
I10
sS'bit'
p2928
I7
sS'foolish'
p2929
I5
sS'obliged'
p2930
I9
sS'back'
p2931
I179
sS'ourselves'
p2932
I8
sS'decision'
p2933
I13
sS'integration'
p2934
I6
sS'per'
p2935
I24
sS'eliminate'
p2936
I6
sS'patient'
p2937
I7
sS'continuing'
p2938
I7
sS'proportional'
p2939
I5
sS'forward'
p2940
I22
sS'translate'
p2941
I7
sS'hoped'
p2942
I9
sS'hopes'
p2943
I6
sS'directed'
p2944
I14
sS'planes'
p2945
I5
sS'constant'
p2946
I5
sS'cure'
p2947
I5
sS'lend'
p2948
I6
sS'papa'
p2949
I6
sS'prepared'
p2950
I26
sS'literary'
p2951
I8
sS'entire'
p2952
I9
sS'giving'
p2953
I9
sS'access'
p2954
I7
sS'exercise'
p2955
I9
sS'body'
p2956
I15
sS'objects'
p2957
I9
sS'sink'
p2958
I7
sS'others'
p2959
I25
sS'extreme'
p2960
I8
sS'30'
p2961
I9
sS'alaska'
p2962
I5
sS'honor'
p2963
I8
sS'private'
p2964
I9
sS'themselves'
p2965
I31
sS'train'
p2966
I12
sS'account'
p2967
I7
sS'didnt'
p2968
I52
sS'philosophy'
p2969
I8
sS'bothered'
p2970
I5
sS'correspond'
p2971
I5
sS'chief'
p2972
I6
sS'furnish'
p2973
I7
sS'six'
p2974
I6
sS'symbols'
p2975
I5
sS'industries'
p2976
I7
sS'labor'
p2977
I14
sS'willing'
p2978
I35
sS'greater'
p2979
I13
sS'mention'
p2980
I6
sS'day'
p2981
I44
sS'defend'
p2982
I7
sS'lecture'
p2983
I6
sS'red'
p2984
I10
sS'approaches'
p2985
I5
sS'south'
p2986
I15
sS'plastics'
p2987
I6
sS'reached'
p2988
I7
sS'nobody'
p2989
I9
sS'negro'
p2990
I5
sS'have'
p2991
I542
sS'apparently'
p2992
I13
sS'unless'
p2993
I13
sS'eight'
p2994
I8
sS'request'
p2995
I5
sS'occasion'
p2996
I10
sS'staff'
p2997
I6
sS'knowledge'
p2998
I8
sS'beat'
p2999
I13
sS'drawn'
p3000
I7
sS'fixed'
p3001
I6
sS'national'
p3002
I19
sS'walking'
p3003
I6
sS'reform'
p3004
I5
sS'pattern'
p3005
I5
sS'difficulties'
p3006
I6
sS'routine'
p3007
I6
sS'progress'
p3008
I8
sS'deliver'
p3009
I7
sS'freely'
p3010
I5
sS'taking'
p3011
I10
sS'equal'
p3012
I16
sS'assure'
p3013
I13
sS'laugh'
p3014
I5
sS'proposal'
p3015
I6
sS'define'
p3016
I5
sS'assert'
p3017
I7
sS'fellow'
p3018
I6
sS'homes'
p3019
I5
sS'helped'
p3020
I9
sS'claimed'
p3021
I6
sS'administration'
p3022
I5
sS'practice'
p3023
I10
sS'insure'
p3024
I7
sS'center'
p3025
I12
sS'thought'
p3026
I39
sS'position'
p3027
I28
sS'domestic'
p3028
I8
sS'tone'
p3029
I5
sS'lake'
p3030
I7
sS'add'
p3031
I31
sS'match'
p3032
I6
sS'like'
p3033
I124
sS'admitted'
p3034
I8
sS'heed'
p3035
I5
sS'authority'
p3036
I15
sS'convey'
p3037
I5
sS'proper'
p3038
I9
sS'discretion'
p3039
I5
sS'economical'
p3040
I6
sS'screwed'
p3041
I7
sS'about'
p3042
I162
sS'actual'
p3043
I8
sS'introduced'
p3044
I9
sS'guard'
p3045
I9
sS'doesnt'
p3046
I11
sS'rushed'
p3047
I10
sS'utopian'
p3048
I5
sS'buy'
p3049
I24
sS'repeated'
p3050
I7
sS'partially'
p3051
I5
sS'wise'
p3052
I7
sS'dangerous'
p3053
I6
sS'limited'
p3054
I17
sS'facilities'
p3055
I6
sS'hate'
p3056
I5
sS'paris'
p3057
I7
sS'risk'
p3058
I6
sS'rise'
p3059
I23
sS'every'
p3060
I33
sS'jack'
p3061
I5
sS'school'
p3062
I38
sS'glued'
p3063
I8
sS'enjoy'
p3064
I7
sS'leaders'
p3065
I10
sS'direct'
p3066
I20
sS'street'
p3067
I17
sS'estimated'
p3068
I6
sS'hide'
p3069
I12
sS'christ'
p3070
I9
sS'supplies'
p3071
I5
sS'path'
p3072
I8
sS'voice'
p3073
I13
sS'changed'
p3074
I11
sS'changes'
p3075
I9
sS'would'
p3076
I252
sS'hospital'
p3077
I6
sS'phone'
p3078
I8
sS'must'
p3079
I66
sS'shoot'
p3080
I7
sS'join'
p3081
I24
sS'mr'
p3082
I37
sS'my'
p3083
I134
sS'keep'
p3084
I83
sS'attract'
p3085
I6
sS'end'
p3086
I37
sS'writers'
p3087
I9
sS'ultimate'
p3088
I6
sS'over'
p3089
I89
sS'london'
p3090
I5
sS'writing'
p3091
I9
sS'explode'
p3092
I5
sS'each'
p3093
I71
sS'group'
p3094
I19
sS'god'
p3095
I22
sS'laid'
p3096
I7
sS'got'
p3097
I67
sS'free'
p3098
I33
sS'wanted'
p3099
I99
sS'already'
p3100
I19
sS'restrict'
p3101
I5
sS'top'
p3102
I16
sS'too'
p3103
I77
sS'murder'
p3104
I5
sS'serve'
p3105
I28
sS'took'
p3106
I30
sS'western'
p3107
I9
sS'final'
p3108
I9
sS'prone'
p3109
I8
sS'bridge'
p3110
I10
sS'ran'
p3111
I18
sS'talking'
p3112
I15
sS'relatively'
p3113
I5
sS'1960'
p3114
I10
sS'1962'
p3115
I8
sS'plenty'
p3116
I8
sS'flow'
p3117
I9
sS'rupees'
p3118
I5
sS'radio'
p3119
I6
sS'earth'
p3120
I17
sS'announce'
p3121
I5
sS'watch'
p3122
I18
sS'despite'
p3123
I6
sS'report'
p3124
I24
sS'public'
p3125
I37
sS'submitted'
p3126
I6
sS'prokofieff'
p3127
I6
sS'capacity'
p3128
I12
sS'temptation'
p3129
I5
sS'approach'
p3130
I32
sS'however'
p3131
I31
sS'news'
p3132
I5
sS'improve'
p3133
I12
sS'protect'
p3134
I8
sS'trust'
p3135
I9
sS'conference'
p3136
I7
sS'beef'
p3137
I5
sS'been'
p3138
I214
sS'quickly'
p3139
I8
sS'expected'
p3140
I52
sS'affixed'
p3141
I6
sS'bible'
p3142
I5
sS'catch'
p3143
I11
sS'teachers'
p3144
I8
sS'procedure'
p3145
I6
sS'expenses'
p3146
I6
sS'pathology'
p3147
I6
sS'suggest'
p3148
I10
sS'beside'
p3149
I6
sS'helva'
p3150
I5
sS'several'
p3151
I26
sS'greatest'
p3152
I9
sS'mother'
p3153
I17
sS'proposed'
p3154
I10
sS'gave'
p3155
I35
sS'judge'
p3156
I7
sS'50'
p3157
I7
sS'specific'
p3158
I13
sS'escape'
p3159
I17
sS'establish'
p3160
I16
sS'everything'
p3161
I20
sS'disposed'
p3162
I6
sS'permitted'
p3163
I18
sS'chapter'
p3164
I5
sS'dinner'
p3165
I13
sS'efforts'
p3166
I22
sS'accommodate'
p3167
I5
sS'class'
p3168
I14
sS'head'
p3169
I21
sS'medium'
p3170
I7
sS'attempted'
p3171
I10
sS'heat'
p3172
I10
sS'uncle'
p3173
I7
sS'trip'
p3174
I13
sS'no'
p3175
I169
sS'when'
p3176
I116
sS'picture'
p3177
I9
sS'longer'
p3178
I24
sS'focus'
p3179
I7
sS'leads'
p3180
I12
sS'charge'
p3181
I10
sS'advantage'
p3182
I13
sS'cool'
p3183
I6
sS'level'
p3184
I17
sS'standards'
p3185
I11
sS'says'
p3186
I10
sS'trend'
p3187
I7
sS'remain'
p3188
I20
sS'pleased'
p3189
I7
sS'goes'
p3190
I14
sS'reply'
p3191
I7
sS'water'
p3192
I32
sS'entertain'
p3193
I6
sS'proud'
p3194
I7
sS'crisis'
p3195
I9
sS'negroes'
p3196
I6
sS'today'
p3197
I14
sS'local'
p3198
I18
sS'figure'
p3199
I6
sS'dropped'
p3200
I9
sS'requirements'
p3201
I8
sg498
I30
sS'vital'
p3202
I6
sS'platform'
p3203
I7
sS'offers'
p3204
I7
sS'happened'
p3205
I24
sS'qualified'
p3206
I5
sS'term'
p3207
I10
sS'name'
p3208
I16
sS'plant'
p3209
I7
sS'begun'
p3210
I18
sS'intended'
p3211
I17
sS'theory'
p3212
I15
sS'contain'
p3213
I6
sS'impose'
p3214
I6
sS'turn'
p3215
I51
sS'place'
p3216
I59
sS'swing'
p3217
I9
sS'symbolic'
p3218
I7
sS'george'
p3219
I5
sS'given'
p3220
I50
sS'necessarily'
p3221
I5
sS'district'
p3222
I9
sS'cooling'
p3223
I6
sS'white'
p3224
I13
sS'gives'
p3225
I19
sS'cope'
p3226
I10
sS'population'
p3227
I12
sS'require'
p3228
I9
sS'officials'
p3229
I6
sS'and'
p3230
I1581
sS'rent'
p3231
I5
sS'any'
p3232
I139
sS'ideas'
p3233
I6
sS'urge'
p3234
I8
sS'visitors'
p3235
I6
sS'considered'
p3236
I8
sS'adopt'
p3237
I6
sS'hear'
p3238
I27
sS'pursuant'
p3239
I9
sS'written'
p3240
I14
sS'jazz'
p3241
I5
sS'college'
p3242
I21
sS'encouraged'
p3243
I8
sS'fails'
p3244
I5
sS'review'
p3245
I7
sS'opening'
p3246
I5
sS'outside'
p3247
I10
sS'come'
p3248
I134
sS'reaction'
p3249
I10
sS'period'
p3250
I13
sS'insist'
p3251
I5
sS'hardly'
p3252
I6
sS'direction'
p3253
I9
sS'careful'
p3254
I12
sS'spirit'
p3255
I13
sS'case'
p3256
I12
sS'myself'
p3257
I21
sS'someone'
p3258
I15
sS'check'
p3259
I13
sS'events'
p3260
I5
sS'status'
p3261
I5
sS'nest'
p3262
I5
sS'refusal'
p3263
I6
sS'driver'
p3264
I6
sS'persons'
p3265
I8
sS'weep'
p3266
I5
sS'minimize'
p3267
I8
sS'without'
p3268
I33
sS'relief'
p3269
I7
sS'inability'
p3270
I12
sS'bodies'
p3271
I5
sS'justify'
p3272
I6
sS'kill'
p3273
I19
sS'blow'
p3274
I10
sS'rose'
p3275
I14
sS'seems'
p3276
I100
sS'except'
p3277
I12
sS'lets'
p3278
I6
sS'scheduled'
p3279
I5
sS'virginia'
p3280
I8
sS'confined'
p3281
I11
sS'particle'
p3282
I5
sS'serious'
p3283
I12
sS'reduced'
p3284
I21
sS'competition'
p3285
I5
sS'respect'
p3286
I33
sS'provided'
p3287
I5
sS'moon'
p3288
I5
sS'inspect'
p3289
I7
sS'on'
p3290
I342
sS'jeep'
p3291
I5
sS'determine'
p3292
I29
sS'regard'
p3293
I28
sS'grasp'
p3294
I5
sS'taste'
p3295
I7
sS'frighten'
p3296
I8
sS'corresponding'
p3297
I8
sS'5'
p3298
I10
sS'sufficient'
p3299
I21
sS'briefly'
p3300
I6
sS'wife'
p3301
I25
sS'all'
p3302
I195
sS'chinese'
p3303
I9
sS'lack'
p3304
I9
sS'follow'
p3305
I17
sS'apartment'
p3306
I6
sS'subjected'
p3307
I10
sS'program'
p3308
I27
sS'present'
p3309
I34
sS'activities'
p3310
I5
sS'belonging'
p3311
I6
sS'woman'
p3312
I15
sS'song'
p3313
I6
sS'ten'
p3314
I9
sS'rate'
p3315
I8
sS'design'
p3316
I10
sS'brief'
p3317
I5
sS'guns'
p3318
I6
sS'christian'
p3319
I18
sS'tragedy'
p3320
I5
sS'allows'
p3321
I5
sS'identity'
p3322
I6
sS'suddenly'
p3323
I14
sS'proceed'
p3324
I5
sS'known'
p3325
I37
sS'glad'
p3326
I15
sS'presumed'
p3327
I7
sS'court'
p3328
I16
sS'goal'
p3329
I5
sS'rather'
p3330
I16
sS'reflect'
p3331
I9
sS'short'
p3332
I15
sS'shore'
p3333
I5
sS'began'
p3334
I108
sS'mission'
p3335
I12
sS'isnt'
p3336
I6
sS'might'
p3337
I41
sS'somebody'
p3338
I6
sS'needless'
p3339
I5
sS'generation'
p3340
I5
sS'hill'
p3341
I8
sS'teach'
p3342
I12
sS'feed'
p3343
I14
sS'seeming'
p3344
I5
sS'feel'
p3345
I29
sS'feet'
p3346
I37
sS'temperature'
p3347
I16
sS'leading'
p3348
I10
sS'passed'
p3349
I7
sS'store'
p3350
I8
sS'hotel'
p3351
I12
sS'king'
p3352
I11
sS'kind'
p3353
I17
sS'double'
p3354
I5
sS'machines'
p3355
I5
sS'finding'
p3356
I5
sS'added'
p3357
I34
sS'measures'
p3358
I5
sS'reach'
p3359
I27
sS'react'
p3360
I6
sS'nothing'
p3361
I57
sS'achievement'
p3362
I10
sS'preaching'
p3363
I5
sS'discuss'
p3364
I7
sS'his'
p3365
I639
sS'him'
p3366
I432
sS'appeal'
p3367
I11
sS'activity'
p3368
I6
sS'wrote'
p3369
I18
sS'art'
p3370
I13
sS'arm'
p3371
I5
sS'various'
p3372
I14
sS'latin'
p3373
I6
sS'sold'
p3374
I5
sS'attention'
p3375
I39
sS'opposition'
p3376
I10
sg681
I7
sS'roman'
p3377
I5
sS'village'
p3378
I8
sS'political'
p3379
I16
sS'due'
p3380
I51
sS'whom'
p3381
I14
sS'chandler'
p3382
I7
sS'flight'
p3383
I5
sS'demand'
p3384
I9
sS'theres'
p3385
I10
sS'rid'
p3386
I5
sS'advise'
p3387
I6
sS'higher'
p3388
I13
sS'literature'
p3389
I12
sS'moving'
p3390
I9
sS'lower'
p3391
I8
sS'anybody'
p3392
I7
sS'analysis'
p3393
I10
sS'dared'
p3394
I5
sS'edge'
p3395
I14
sS'press'
p3396
I12
sS'questions'
p3397
I14
sS'ignore'
p3398
I5
sS'arthur'
p3399
I5
sS'essential'
p3400
I16
sS'gradually'
p3401
I12
sS'tends'
p3402
I23
sS'lose'
p3403
I17
sS'refused'
p3404
I30
sS'range'
p3405
I15
sS'question'
p3406
I29
sS'analyze'
p3407
I7
sS'sections'
p3408
I5
sS'mountains'
p3409
I5
sS'called'
p3410
I29
sS'stick'
p3411
I9
sS'peace'
p3412
I19
sS'parlor'
p3413
I5
sS'income'
p3414
I5
sS'nice'
p3415
I9
sS'helping'
p3416
I8
sS'allowing'
p3417
I5
sS'departments'
p3418
I5
sS'resistance'
p3419
I7
sS'adjustment'
p3420
I5
sS'languages'
p3421
I5
sS'include'
p3422
I21
sS'wished'
p3423
I14
sS'wishes'
p3424
I8
sS'noted'
p3425
I7
sS'waiting'
p3426
I16
sS'capital'
p3427
I8
sS'chose'
p3428
I7
sS'desired'
p3429
I5
sS'explore'
p3430
I6
sS'larger'
p3431
I7
sS'leaving'
p3432
I6
sS'writer'
p3433
I12
sS'apt'
p3434
I10
sS'apply'
p3435
I26
sS'use'
p3436
I79
sS'from'
p3437
I367
sS'sort'
p3438
I8
sS'porch'
p3439
I7
sS'inclined'
p3440
I14
sS'women'
p3441
I15
sS'linger'
p3442
I5
sS'tax'
p3443
I15
sS'something'
p3444
I76
sS'sir'
p3445
I10
sS'united'
p3446
I23
sS'sit'
p3447
I13
sS'attend'
p3448
I15
sS'light'
p3449
I20
sS'reporters'
p3450
I7
sS'permanent'
p3451
I9
sS'choose'
p3452
I18
sS'covered'
p3453
I7
sS'material'
p3454
I8
sS'related'
p3455
I39
sS'our'
p3456
I102
sS'couldnt'
p3457
I7
sS'out'
p3458
I229
sS'common'
p3459
I17
sS'dictionary'
p3460
I5
sS'york'
p3461
I21
sS'conversation'
p3462
I5
sS'straight'
p3463
I14
sS'unknown'
p3464
I11
sS'their'
p3465
I292
sS'boil'
p3466
I6
sS'july'
p3467
I6
sS'afraid'
p3468
I6
sS'which'
p3469
I235
sS'who'
p3470
I164
sS'why'
p3471
I21
sS'deny'
p3472
I13
sS'looked'
p3473
I17
sS'gain'
p3474
I8
sS'agreed'
p3475
I7
sS'planning'
p3476
I8
sS'fear'
p3477
I11
sS'married'
p3478
I13
sS'closer'
p3479
I20
sS'ability'
p3480
I31
sS'amen'
p3481
I5
sS'job'
p3482
I20
sS'demonstrate'
p3483
I9
sS'wall'
p3484
I14
sS'walk'
p3485
I23
sS'table'
p3486
I11
sS'mike'
p3487
I9
sS'will'
p3488
I162
sS'supply'
p3489
I18
sS'thus'
p3490
I14
sS'radiation'
p3491
I6
sS'cross'
p3492
I8
sS'member'
p3493
I10
sS'difficult'
p3494
I54
sS'student'
p3495
I12
sS'english'
p3496
I17
sS'khrushchev'
p3497
I5
sS'obtain'
p3498
I13
sS'provision'
p3499
I7
sS'hall'
p3500
I21
sS'other'
p3501
I100
sS'earnestly'
p3502
I5
sS'identical'
p3503
I7
sS'know'
p3504
I80
sS'palfrey'
p3505
I5
sS'helpful'
p3506
I7
sS'scared'
p3507
I5
sS'growth'
p3508
I9
sS'employment'
p3509
I5
sS'lead'
p3510
I35
sS'locate'
p3511
I6
sS'pike'
p3512
I5
sS'urged'
p3513
I8
sS'own'
p3514
I63
sS'brush'
p3515
I6
sS'transfer'
p3516
I11
sS'funds'
p3517
I14
sS'made'
p3518
I92
sS'whether'
p3519
I38
sS'record'
p3520
I10
sS'book'
p3521
I12
sS'conclusion'
p3522
I6
sS'gas'
p3523
I5
sS'june'
p3524
I7
ssS'principal'
p3525
(dp3526
S'were'
p3527
I6
sS'awards'
p3528
I6
sS'unpaid'
p3529
I5
sS'which'
p3530
I1
ssS'write'
p3531
(dp3532
S'his'
p3533
I1
sS'they'
p3534
I2
sS'now'
p3535
I1
sS'him'
p3536
I2
sS'by'
p3537
I1
sS'of'
p3538
I3
sS'could'
p3539
I9
sS'down'
p3540
I1
sS'then'
p3541
I1
sS'was'
p3542
I2
sS'but'
p3543
I2
sS'he'
p3544
I5
sS'up'
p3545
I1
sS'were'
p3546
I1
sS'is'
p3547
I2
sS'in'
p3548
I3
sS'it'
p3549
I4
sS'as'
p3550
I2
sS'at'
p3551
I1
sS'have'
p3552
I1
sS'no'
p3553
I1
sS'make'
p3554
I1
sS'on'
p3555
I3
sS'the'
p3556
I11
sS'left'
p3557
I1
ssS'angle'
p3558
(dp3559
S'yc'
p3560
I5
sS'rake'
p3561
I7
sS'of'
p3562
I13
sS'to'
p3563
I7
sS'and'
p3564
I5
sS'is'
p3565
I12
ssS'raise'
p3566
(dp3567
S'which'
p3568
I1
ssS'lead'
p3569
(dp3570
S'us'
p3571
I5
sS'will'
p3572
I5
sS'have'
p3573
I1
ssS'no'
p3574
(dp3575
S'under'
p3576
I7
sS'ever'
p3577
I10
sS'circumstances'
p3578
I5
sS'room'
p3579
I5
sS'mr'
p3580
I5
sS'answer'
p3581
I8
sS'over'
p3582
I5
sS'showed'
p3583
I5
sS'matter'
p3584
I31
sS'though'
p3585
I5
sS'do'
p3586
I6
sS'never'
p3587
I2
sS'had'
p3588
I121
sS'been'
p3589
I19
sS'life'
p3590
I5
sS'is'
p3591
I170
sS'in'
p3592
I99
sS'make'
p3593
I13
sS'complex'
p3594
I5
sS'left'
p3595
I9
sS'yet'
p3596
I10
sS'has'
p3597
I35
sS'gave'
p3598
I5
sS'possible'
p3599
I5
sS'people'
p3600
I3
sS'for'
p3601
I81
sS'of'
p3602
I159
sS'two'
p3603
I5
sS'was'
p3604
I177
sS'war'
p3605
I5
sS'evidence'
p3606
I10
sS'longer'
p3607
I93
sS'time'
p3608
I20
sS'must'
p3609
I1
sS'choice'
p3610
I5
sS'trouble'
p3611
I7
sS'did'
p3612
I3
sS'sign'
p3613
I6
sS'apparent'
p3614
I5
sS'making'
p3615
I5
sS'such'
p3616
I18
sS'not'
p3617
I10
sS'place'
p3618
I14
sS'first'
p3619
I8
sS'one'
p3620
I64
sS'than'
p3621
I52
sS'were'
p3622
I34
sS'saw'
p3623
I6
sS'paid'
p3624
I7
sS'between'
p3625
I14
sS'sound'
p3626
I6
sS'different'
p3627
I7
sS'felt'
p3628
I6
sS'on'
p3629
I23
sS'oh'
p3630
I8
sS'or'
p3631
I47
sS'there'
p3632
I264
sS'with'
p3633
I58
sS'at'
p3634
I28
sS'you'
p3635
I13
sS'woman'
p3636
I5
sS'further'
p3637
I5
sS'experience'
p3638
I6
sS'more'
p3639
I61
sS'particular'
p3640
I6
sS'sense'
p3641
I8
sS'court'
p3642
I5
sS'found'
p3643
I7
sS'idea'
p3644
I13
sS'difficulty'
p3645
I6
sS'reason'
p3646
I30
sS'dont'
p3647
I3
sS'done'
p3648
I5
sS'part'
p3649
I13
sS'nothing'
p3650
I1
sS'find'
p3651
I6
sS'see'
p3652
I8
sS'available'
p3653
I5
sS'attention'
p3654
I7
sS'point'
p3655
I9
sS'theres'
p3656
I13
sS'be'
p3657
I69
sS'use'
p3658
I12
sS'by'
p3659
I29
sS'question'
p3660
I9
sS'up'
p3661
I5
sS'having'
p3662
I9
sS'seemed'
p3663
I9
sS'business'
p3664
I6
sS'let'
p3665
I1
sS'great'
p3666
I7
sS'from'
p3667
I16
sS'doubt'
p3668
I36
sS'didnt'
p3669
I3
sS'greater'
p3670
I6
sS'special'
p3671
I5
sS'out'
p3672
I9
sS'could'
p3673
I38
sS'have'
p3674
I64
sS'fact'
p3675
I5
sS'hope'
p3676
I6
sS'means'
p3677
I20
sS'words'
p3678
I6
sS'almost'
p3679
I5
sS'perhaps'
p3680
I5
sS'thought'
p3681
I7
sS'less'
p3682
I10
sS'whatever'
p3683
I5
sS'because'
p3684
I15
sS'although'
p3685
I6
sS'additional'
p3686
I5
sS'intention'
p3687
I7
sS'but'
p3688
I97
sS'made'
p3689
I16
sS'whether'
p3690
I2
sS'problem'
p3691
I10
sS'other'
p3692
I24
sS'chance'
p3693
I7
ssS'latter'
p3694
(dp3695
S'to'
p3696
I5
sS'some'
p3697
I1
sS'she'
p3698
I1
sS'be'
p3699
I2
sS'by'
p3700
I2
sS'on'
p3701
I2
sS'months'
p3702
I1
sS'days'
p3703
I1
sS'was'
p3704
I4
sS'that'
p3705
I2
sS'with'
p3706
I1
sS'will'
p3707
I1
sS'and'
p3708
I8
sS'is'
p3709
I15
sS'many'
p3710
I1
sg5
I6
sg108
I1
ssS'peace'
p3711
(dp3712
S'corps'
p3713
I5
sS'world'
p3714
I6
sS'with'
p3715
I17
sS'he'
p3716
I7
sS'on'
p3717
I1
ssS'except'
p3718
(dp3719
S'all'
p3720
I8
sS'few'
p3721
I5
sg5
I19
sS'each'
p3722
I5
sS'one'
p3723
I6
sS'that'
p3724
I21
sS'him'
p3725
I5
sS'state'
p3726
I6
sS'in'
p3727
I17
sS'for'
p3728
I38
sS'would'
p3729
I1
ssS'thorough'
p3730
(dp3731
S'all'
p3732
I1
sS'at'
p3733
I1
sS'seen'
p3734
I1
sS'from'
p3735
I1
sS'to'
p3736
I1
sS'long'
p3737
I1
sS'which'
p3738
I1
sS'was'
p3739
I1
sS'that'
p3740
I1
sS'with'
p3741
I1
sS'of'
p3742
I5
sS'as'
p3743
I1
sS'can'
p3744
I1
sS'the'
p3745
I2
ssS'than'
p3746
(dp3747
S'four'
p3748
I5
sS'ever'
p3749
I30
sS'never'
p3750
I10
sS'mr'
p3751
I5
sS'earlier'
p3752
I10
sS'president'
p3753
I6
sS'before'
p3754
I16
sS'better'
p3755
I54
sS'went'
p3756
I1
sS'got'
p3757
I1
sS'little'
p3758
I20
sS'1960'
p3759
I5
sS'men'
p3760
I8
sS'country'
p3761
I5
sS'much'
p3762
I42
sS'life'
p3763
I7
sS'left'
p3764
I1
sS'human'
p3765
I7
sS'has'
p3766
I25
sS'50'
p3767
I12
sS'specific'
p3768
I5
sS'right'
p3769
I2
sS'old'
p3770
I6
sS'slightly'
p3771
I10
sS'down'
p3772
I2
sS'often'
p3773
I9
sS'form'
p3774
I5
sS'true'
p3775
I5
sS'younger'
p3776
I9
sS'level'
p3777
I5
sS'years'
p3778
I29
sS'half'
p3779
I12
sS'state'
p3780
I6
sS'million'
p3781
I12
sS'turn'
p3782
I1
sS'anyone'
p3783
I5
sS'any'
p3784
I61
sS'price'
p3785
I5
sS'average'
p3786
I8
sS'those'
p3787
I22
sS'different'
p3788
I6
sS'no'
p3789
I43
sS'being'
p3790
I6
sS'either'
p3791
I5
sS'or'
p3792
I35
sS'longer'
p3793
I12
sS'general'
p3794
I10
sS'important'
p3795
I9
sS'mass'
p3796
I5
sS'worse'
p3797
I9
sS'far'
p3798
I25
sS'ten'
p3799
I10
sS'past'
p3800
I5
sS'more'
p3801
I496
sS'share'
p3802
I5
sS'states'
p3803
I8
sS'rather'
p3804
I134
sS'its'
p3805
I17
sS'good'
p3806
I9
sS'bigger'
p3807
I9
sS'put'
p3808
I1
sS'feet'
p3809
I7
sS'done'
p3810
I5
sS'hundred'
p3811
I15
sS'most'
p3812
I16
sS'nothing'
p3813
I20
sS'rest'
p3814
I5
sS'during'
p3815
I5
sS'common'
p3816
I5
sS'became'
p3817
I1
sS'expensive'
p3818
I5
sS'political'
p3819
I6
sS'else'
p3820
I9
sS'shorter'
p3821
I5
sS'higher'
p3822
I17
sS'used'
p3823
I5
sS'lower'
p3824
I11
sS'older'
p3825
I8
sS'back'
p3826
I1
sS'per'
p3827
I5
sS'anything'
p3828
I16
sS'considerably'
p3829
I5
sS'inches'
p3830
I5
sS'ago'
p3831
I5
sS'fewer'
p3832
I5
sS'smaller'
p3833
I8
sS'others'
p3834
I8
sS'larger'
p3835
I18
sS'use'
p3836
I5
sS'started'
p3837
I5
sS'women'
p3838
I5
sS'something'
p3839
I13
sS'united'
p3840
I5
sS'greater'
p3841
I30
sS'area'
p3842
I6
sS'need'
p3843
I6
sS'said'
p3844
I1
sS'stronger'
p3845
I5
sS'ones'
p3846
I7
sS'probably'
p3847
I6
sS'well'
p3848
I1
sS'usual'
p3849
I11
sS'less'
p3850
I150
sS'simpler'
p3851
I5
sS'buy'
p3852
I5
sS'other'
p3853
I83
ssS'presents'
p3854
(dp3855
S'its'
p3856
I1
sS'by'
p3857
I1
sS'of'
p3858
I8
sS'to'
p3859
I7
sS'in'
p3860
I3
ssS'their'
p3861
(dp3862
S'force'
p3863
I5
sS'direct'
p3864
I6
sS'men'
p3865
I34
sS'here'
p3866
I2
sS'employees'
p3867
I5
sS'give'
p3868
I11
sS'end'
p3869
I8
sS'provide'
p3870
I5
sS'order'
p3871
I6
sS'they'
p3872
I103
sS'schools'
p3873
I5
sS'each'
p3874
I10
sS'mounts'
p3875
I6
sS'principles'
p3876
I6
sS'rates'
p3877
I5
sS'took'
p3878
I6
sS'wisdom'
p3879
I5
sS'classes'
p3880
I6
sS'strength'
p3881
I5
sS'effectiveness'
p3882
I5
sS'stood'
p3883
I1
sS'came'
p3884
I6
sS'attitudes'
p3885
I6
sS'countries'
p3886
I6
sS'best'
p3887
I9
sS'against'
p3888
I12
sS'faces'
p3889
I7
sS'been'
p3890
I13
sS'families'
p3891
I6
sS'near'
p3892
I6
sS'is'
p3893
I59
sS'make'
p3894
I15
sS'counterparts'
p3895
I7
sS'programs'
p3896
I6
sS'humble'
p3897
I5
sS'mother'
p3898
I5
sS'efforts'
p3899
I9
sS'support'
p3900
I7
sS'fight'
p3901
I5
sS'was'
p3902
I32
sS'talents'
p3903
I7
sS'true'
p3904
I7
sS'evidence'
p3905
I1
sS'no'
p3906
I8
sS'neighbors'
p3907
I6
sS'run'
p3908
I5
sS'love'
p3909
I5
sS'making'
p3910
I6
sS'heard'
p3911
I7
sS'sacrifice'
p3912
I6
sS'needs'
p3913
I5
sS'still'
p3914
I7
sS'wagon'
p3915
I5
sS'language'
p3916
I5
sS'eyes'
p3917
I10
sS'than'
p3918
I23
sS'future'
p3919
I9
sS'turned'
p3920
I5
sS'voices'
p3921
I7
sS'any'
p3922
I3
sS'sat'
p3923
I1
sS'ideas'
p3924
I6
sS'performance'
p3925
I5
sS'professional'
p3926
I6
sS'behind'
p3927
I5
sS'cities'
p3928
I7
sS'heels'
p3929
I5
sS'without'
p3930
I9
sS'bodies'
p3931
I8
sS'money'
p3932
I10
sS'actions'
p3933
I9
sS'death'
p3934
I7
sS'thinking'
p3935
I5
sS'achieve'
p3936
I5
sS'either'
p3937
I8
sS'enough'
p3938
I1
sS'with'
p3939
I92
sS'welfare'
p3940
I5
sS'children'
p3941
I12
sS'returned'
p3942
I5
sS'past'
p3943
I7
sS'full'
p3944
I6
sS'experience'
p3945
I12
sS'family'
p3946
I9
sS'horses'
p3947
I10
sS'town'
p3948
I6
sS'hour'
p3949
I5
sS'remain'
p3950
I1
sS'resources'
p3951
I5
sS'states'
p3952
I8
sS'respective'
p3953
I5
sS'held'
p3954
I7
sS'through'
p3955
I17
sS'actually'
p3956
I1
sS'reactions'
p3957
I6
sS'reason'
p3958
I2
sS'members'
p3959
I11
sS'put'
p3960
I11
sS'heads'
p3961
I11
sS'simply'
p3962
I1
sS'feet'
p3963
I9
sS'least'
p3964
I1
sS'identity'
p3965
I6
sS'relationship'
p3966
I13
sS'toward'
p3967
I12
sS'nothing'
p3968
I3
sS'relation'
p3969
I6
sS'moments'
p3970
I1
sS'trees'
p3971
I5
sS'closely'
p3972
I5
sS'set'
p3973
I8
sS'art'
p3974
I5
sS'close'
p3975
I7
sS'attention'
p3976
I8
sS'both'
p3977
I13
sS'due'
p3978
I5
sS'cut'
p3979
I6
sS'faith'
p3980
I9
sS'together'
p3981
I6
sS'into'
p3982
I34
sS'long'
p3983
I1
sS'boys'
p3984
I7
sS'backs'
p3985
I9
sS'income'
p3986
I5
sS'problems'
p3987
I6
sS'land'
p3988
I5
sS'once'
p3989
I1
sS'positions'
p3990
I5
sS'try'
p3991
I6
sS'waiting'
p3992
I1
sS'others'
p3993
I6
sS'technical'
p3994
I6
sS'from'
p3995
I61
sS'women'
p3996
I7
sS'freedom'
p3997
I5
sS'control'
p3998
I5
sS'something'
p3999
I3
sS'educational'
p4000
I7
sS'united'
p4001
I5
sS'hands'
p4002
I14
sS'front'
p4003
I5
sS'sexual'
p4004
I5
sS'house'
p4005
I7
sS'keep'
p4006
I8
sS'length'
p4007
I7
sS'their'
p4008
I70
sS'final'
p4009
I5
sS'interests'
p4010
I5
sS'fact'
p4011
I1
sS'bring'
p4012
I5
sS'soldiers'
p4013
I6
sS'words'
p4014
I5
sS'ability'
p4015
I7
sS'minds'
p4016
I18
sS'homes'
p4017
I6
sS'began'
p4018
I6
sS'upon'
p4019
I5
sS'thought'
p4020
I1
sS'position'
p4021
I7
sS'government'
p4022
I5
sS'home'
p4023
I13
sS'own'
p4024
I114
sS'letters'
p4025
I7
sS'lost'
p4026
I6
sS'made'
p4027
I12
sS'places'
p4028
I5
sS'whether'
p4029
I2
sS'demonstrate'
p4030
I5
sS'lives'
p4031
I20
ssS'youre'
p4032
(dp4033
S'paper'
p4034
I1
sS'how'
p4035
I2
sS'to'
p4036
I13
sS'then'
p4037
I1
sS'him'
p4038
I1
sS'wont'
p4039
I1
sS'like'
p4040
I1
sS'because'
p4041
I1
sS'are'
p4042
I1
sS'said'
p4043
I2
sS'for'
p4044
I3
sS'let'
p4045
I1
sS'come'
p4046
I1
sS'of'
p4047
I1
sS'and'
p4048
I8
sS'dont'
p4049
I1
sS'into'
p4050
I1
sS'your'
p4051
I1
sS'much'
p4052
I1
sS'was'
p4053
I2
sS'that'
p4054
I2
sS'with'
p4055
I4
sS'this'
p4056
I1
sS'up'
p4057
I1
sS'can'
p4058
I1
sS'it'
p4059
I2
sS'as'
p4060
I1
sS'in'
p4061
I3
sS'need'
p4062
I1
sS'take'
p4063
I1
sS'you'
p4064
I7
sS'time'
p4065
I1
sg5
I8
sS'well'
p4066
I1
sS'the'
p4067
I11
ssS'reign'
p4068
(dp4069
S'and'
p4070
I2
sg5
I1
ssS'too'
p4071
(dp4072
S'limited'
p4073
I1
sS'all'
p4074
I16
sS'evidence'
p4075
I1
sS'consider'
p4076
I1
sS'chinese'
p4077
I1
sS'jones'
p4078
I1
sS'go'
p4079
I4
sS'seemed'
p4080
I2
sS'father'
p4081
I1
sS'does'
p4082
I2
sS'smile'
p4083
I1
sS'started'
p4084
I1
sS'reality'
p4085
I1
sS'wished'
p4086
I1
sS'risk'
p4087
I1
sS'very'
p4088
I3
sS'got'
p4089
I3
sS'trouble'
p4090
I1
sS'school'
p4091
I2
sS'level'
p4092
I1
sS'did'
p4093
I2
sS'this'
p4094
I16
sS'planning'
p4095
I1
sS'prevent'
p4096
I1
sS'work'
p4097
I5
sS'force'
p4098
I2
sS'discover'
p4099
I1
sS'street'
p4100
I1
sS'design'
p4101
I1
sS'ill'
p4102
I1
sS'even'
p4103
I4
sS'what'
p4104
I2
sS'appear'
p4105
I1
sS'goes'
p4106
I1
sS'new'
p4107
I1
sS'movement'
p4108
I1
sS'full'
p4109
I1
sS'youd'
p4110
I1
sS'never'
p4111
I3
sS'water'
p4112
I1
sS'reported'
p4113
I1
sS'let'
p4114
I2
sS'receive'
p4115
I1
sS'didnt'
p4116
I4
sS'california'
p4117
I1
sS'honor'
p4118
I1
sS'love'
p4119
I2
sS'suddenly'
p4120
I1
sS'apt'
p4121
I1
sS'highly'
p4122
I1
sS'readily'
p4123
I1
sS'from'
p4124
I4
sS'would'
p4125
I11
sS'army'
p4126
I1
sS'hospital'
p4127
I1
sS'century'
p4128
I1
sS'visit'
p4129
I1
sS'throw'
p4130
I1
sS'live'
p4131
I2
sS'music'
p4132
I1
sS'recommend'
p4133
I1
sS'taken'
p4134
I1
sS'themselves'
p4135
I2
sS'military'
p4136
I1
sS'more'
p4137
I2
sS'fellow'
p4138
I1
sS'mr'
p4139
I3
sS'thus'
p4140
I1
sS'known'
p4141
I1
sS'hurry'
p4142
I1
sS'must'
p4143
I1
sS'me'
p4144
I7
sS'states'
p4145
I1
sS'claims'
p4146
I1
sS'itself'
p4147
I2
sS'my'
p4148
I5
sS'something'
p4149
I2
sS'heart'
p4150
I1
sS'president'
p4151
I1
sS'give'
p4152
I2
sS'share'
p4153
I1
sS'pushed'
p4154
I1
sS'sought'
p4155
I1
sS'keep'
p4156
I1
sS'action'
p4157
I1
sS'travel'
p4158
I1
sS'comfort'
p4159
I1
sS'write'
p4160
I1
sS'how'
p4161
I2
sS'hot'
p4162
I1
sS'greatly'
p4163
I1
sS'may'
p4164
I8
sS'philosophy'
p4165
I1
sS'such'
p4166
I1
sS'man'
p4167
I6
sg5
I61
sS'readiness'
p4168
I1
sS'stress'
p4169
I1
sS'short'
p4170
I1
sS'so'
p4171
I9
sS'pay'
p4172
I1
sS'longer'
p4173
I1
sS'over'
p4174
I3
sS'despite'
p4175
I1
sS'paper'
p4176
I1
sS'through'
p4177
I1
sS'still'
p4178
I3
sS'its'
p4179
I10
sS'fit'
p4180
I1
sS'chosen'
p4181
I1
sS'him'
p4182
I11
sS'vital'
p4183
I1
sS'might'
p4184
I2
sS'fool'
p4185
I1
sS'then'
p4186
I6
sS'them'
p4187
I8
sS'washington'
p4188
I2
sS'course'
p4189
I1
sS'they'
p4190
I12
sS'not'
p4191
I39
sS'now'
p4192
I3
sS'nor'
p4193
I1
sS'wont'
p4194
I2
sS'always'
p4195
I2
sS'truth'
p4196
I1
sS'each'
p4197
I1
sS'done'
p4198
I1
sS'went'
p4199
I1
sS'difficult'
p4200
I3
sS'can'
p4201
I5
sS'weight'
p4202
I1
sS'doing'
p4203
I2
sS'house'
p4204
I1
sS'hard'
p4205
I5
sS'idea'
p4206
I2
sS'blood'
p4207
I1
sS'begun'
p4208
I2
sS'impossible'
p4209
I2
sS'our'
p4210
I3
sS'happen'
p4211
I1
sS'out'
p4212
I7
sS'anxious'
p4213
I1
sS'space'
p4214
I1
sS'get'
p4215
I2
sS'cause'
p4216
I1
sS'correct'
p4217
I1
sS'theory'
p4218
I1
sS'quite'
p4219
I1
sS'houses'
p4220
I1
sS'put'
p4221
I1
sS'care'
p4222
I1
sS'could'
p4223
I5
sS'turn'
p4224
I2
sS'american'
p4225
I2
sS'moved'
p4226
I1
sS'think'
p4227
I5
sS'already'
p4228
I2
sS'dont'
p4229
I4
sS'feel'
p4230
I2
sS'restrict'
p4231
I1
sS'brave'
p4232
I1
sS'reached'
p4233
I1
sS'message'
p4234
I2
sS'miss'
p4235
I3
sS'fire'
p4236
I1
sS'service'
p4237
I1
sS'night'
p4238
I1
sS'threatening'
p4239
I1
sS'anyone'
p4240
I1
sS'their'
p4241
I9
sS'station'
p4242
I1
sS'too'
p4243
I10
sS'time'
p4244
I4
sS'white'
p4245
I1
sS'boil'
p4246
I1
sS'back'
p4247
I1
sS'that'
p4248
I43
sS'took'
p4249
I1
sS'spoken'
p4250
I1
sS'part'
p4251
I1
sS'believe'
p4252
I1
sS'kind'
p4253
I2
sS'marriage'
p4254
I1
sS'feeling'
p4255
I1
sS'and'
p4256
I70
sS'permitted'
p4257
I1
sS'wasnt'
p4258
I3
sS'mind'
p4259
I2
sS'say'
p4260
I1
sS'have'
p4261
I19
sS'need'
p4262
I4
sS'seem'
p4263
I2
sS'sell'
p4264
I1
sS'comes'
p4265
I1
sS'take'
p4266
I5
sS'which'
p4267
I4
sS'subject'
p4268
I1
sS'slow'
p4269
I1
sS'sure'
p4270
I2
sS'allow'
p4271
I1
sS'who'
p4272
I4
sS'reach'
p4273
I1
sS'most'
p4274
I1
sS'nothing'
p4275
I2
sS'face'
p4276
I2
sS'clean'
p4277
I1
sS'saying'
p4278
I1
sS'bring'
p4279
I1
sS'relation'
p4280
I1
sS'find'
p4281
I2
sS'justice'
p4282
I1
sS'true'
p4283
I2
sS'outside'
p4284
I1
sS'should'
p4285
I3
sS'going'
p4286
I1
sS'pretty'
p4287
I1
sS'indeed'
p4288
I1
sS'pointed'
p4289
I1
sS'hope'
p4290
I3
sS'do'
p4291
I7
sS'his'
p4292
I14
sS'artist'
p4293
I1
sS'european'
p4294
I1
sS'she'
p4295
I14
sS'secretary'
p4296
I1
sS'learn'
p4297
I1
sS'reference'
p4298
I1
sS'see'
p4299
I4
sS'college'
p4300
I1
sS'close'
p4301
I5
sS'best'
p4302
I1
sS'concern'
p4303
I1
sS'said'
p4304
I9
sS'away'
p4305
I2
sS'state'
p4306
I1
sS'we'
p4307
I13
sS'apparently'
p4308
I1
sS'opening'
p4309
I1
sS'however'
p4310
I1
sS'job'
p4311
I1
sS'extent'
p4312
I1
sS'come'
p4313
I3
sS'suggested'
p4314
I1
sS'taking'
p4315
I1
sS'against'
p4316
I2
sS'asked'
p4317
I2
sS'among'
p4318
I1
sS'gone'
p4319
I1
sS'seems'
p4320
I1
sS'walk'
p4321
I1
sS'respect'
p4322
I1
sS'better'
p4323
I2
sS'mention'
p4324
I1
sS'platform'
p4325
I1
sS'political'
p4326
I1
sS'been'
p4327
I17
sS'quickly'
p4328
I1
sS'expected'
p4329
I3
sS'hardly'
p4330
I1
sS'turned'
p4331
I1
sS'child'
p4332
I1
sS'catch'
p4333
I1
sS'general'
p4334
I1
sS'present'
p4335
I1
sS'applied'
p4336
I2
sS'look'
p4337
I1
sS'leave'
p4338
I2
sS'air'
p4339
I1
sS'will'
p4340
I3
sS'teachers'
p4341
I1
sS'voice'
p4342
I3
sS'study'
p4343
I1
sS'is'
p4344
I62
sS'it'
p4345
I39
sS'jess'
p4346
I1
sS'someone'
p4347
I1
sS'in'
p4348
I31
sS'if'
p4349
I7
sS'make'
p4350
I1
sS'emphasize'
p4351
I1
sS'proved'
p4352
I1
sS'higher'
p4353
I1
sS'finish'
p4354
I1
sS'effect'
p4355
I1
sS'rain'
p4356
I1
sS'hand'
p4357
I1
sS'frequently'
p4358
I1
sS'strength'
p4359
I1
sS'lower'
p4360
I1
sS'off'
p4361
I2
sg108
I26
sS'youre'
p4362
I2
sS'thought'
p4363
I6
sS'without'
p4364
I2
sS'the'
p4365
I99
sS'bodies'
p4366
I1
sS'summer'
p4367
I1
sS'being'
p4368
I5
sS'money'
p4369
I1
sS'obtain'
p4370
I1
sS'yet'
p4371
I1
sS'cut'
p4372
I1
sS'sometimes'
p4373
I1
sS'field'
p4374
I1
sS'thinking'
p4375
I1
sS'had'
p4376
I30
sS'belongs'
p4377
I1
sS'easy'
p4378
I4
sS'wet'
p4379
I1
sS'plenty'
p4380
I1
sS'earnestly'
p4381
I1
sS'has'
p4382
I8
sS'around'
p4383
I1
sS'read'
p4384
I1
sS'possible'
p4385
I1
sS'know'
p4386
I2
sS'world'
p4387
I2
sS'bit'
p4388
I1
sS'unique'
p4389
I1
sS'desire'
p4390
I1
sS'necessary'
p4391
I1
sS'like'
p4392
I6
sS'lost'
p4393
I1
sS'admitted'
p4394
I1
sS'audience'
p4395
I1
sS'become'
p4396
I2
sS'foolish'
p4397
I1
sS'people'
p4398
I2
sS'some'
p4399
I3
sS'somehow'
p4400
I1
sS'extended'
p4401
I1
sS'congress'
p4402
I1
sS'avoid'
p4403
I1
sS'asking'
p4404
I1
sS'be'
p4405
I39
sS'business'
p4406
I1
sS'conventional'
p4407
I1
sS'found'
p4408
I2
sS'drawn'
p4409
I1
sS'exciting'
p4410
I1
sS'on'
p4411
I19
sS'about'
p4412
I12
sS'anything'
p4413
I1
sS'dinner'
p4414
I1
sS'writers'
p4415
I1
sS'other'
p4416
I4
sS'own'
p4417
I2
sS'down'
p4418
I2
sS'couldnt'
p4419
I1
sS'next'
p4420
I1
sS'forget'
p4421
I1
sS'your'
p4422
I5
sS'her'
p4423
I14
sS'support'
p4424
I1
sS'question'
p4425
I1
sS'fight'
p4426
I1
sS'low'
p4427
I2
sS'way'
p4428
I1
sS'was'
p4429
I77
sS'happy'
p4430
I2
sS'himself'
p4431
I1
sS'forward'
p4432
I1
sS'hear'
p4433
I1
sS'with'
p4434
I16
sS'he'
p4435
I50
sS'directed'
p4436
I1
sS'made'
p4437
I4
sS'mrs'
p4438
I1
sS'whether'
p4439
I1
sS'wish'
p4440
I1
sS'up'
p4441
I3
sS'us'
p4442
I2
sS'placed'
p4443
I1
sS'limit'
p4444
I1
sS'today'
p4445
I1
sS'grasp'
p4446
I1
sS'called'
p4447
I1
sS'proud'
p4448
I1
sS'am'
p4449
I1
sS'sales'
p4450
I1
sS'an'
p4451
I10
sS'as'
p4452
I10
sS'at'
p4453
I5
sS'door'
p4454
I1
sS'education'
p4455
I1
sS'trip'
p4456
I1
sS'physical'
p4457
I2
sS'again'
p4458
I3
sS'entirely'
p4459
I1
sS'no'
p4460
I3
sS'when'
p4461
I5
sS'power'
p4462
I1
sS'nuclear'
p4463
I1
sS'you'
p4464
I12
sS'nice'
p4465
I1
sS'picture'
p4466
I1
sS'draw'
p4467
I1
sS'felt'
p4468
I3
sS'stay'
p4469
I2
sS'meaning'
p4470
I1
sS'occasion'
p4471
I1
sS'im'
p4472
I1
sS'assume'
p4473
I2
sS'walked'
p4474
I1
sS'came'
p4475
I1
sS'serious'
p4476
I1
ssS'fourth'
p4477
(dp4478
S'of'
p4479
I13
sS'this'
p4480
I5
sS'and'
p4481
I4
ssS'between'
p4482
(dp4483
S'people'
p4484
I1
sS'division'
p4485
I5
sS'difference'
p4486
I50
sS'antagonism'
p4487
I5
sS'contrast'
p4488
I7
sS'two'
p4489
I43
sS'this'
p4490
I9
sS'blocks'
p4491
I6
sg5
I77
sS'light'
p4492
I5
sS'correlation'
p4493
I6
sS'hands'
p4494
I7
sS'one'
p4495
I7
sS'relations'
p4496
I7
sS'relationship'
p4497
I14
sS'and'
p4498
I283
sS'themselves'
p4499
I1
sS'most'
p4500
I1
sS'only'
p4501
I1
sS'distance'
p4502
I9
sS'exists'
p4503
I5
sS'various'
p4504
I1
sS'distinguish'
p4505
I6
sS'against'
p4506
I6
sS'connection'
p4507
I9
sS'union'
p4508
I5
sS'gap'
p4509
I6
sS'balance'
p4510
I6
sS'make'
p4511
I6
sS'conflict'
p4512
I8
sS'distinction'
p4513
I11
sS'death'
p4514
I5
sS'forces'
p4515
I6
sS'or'
p4516
I11
sS'differences'
p4517
I10
sS'line'
p4518
I8
sS'af'
p4519
I8
sS'an'
p4520
I14
sS'no'
p4521
I12
ssS'new'
p4522
(dp4523
S'under'
p4524
I5
sS'new'
p4525
I5
sS'brought'
p4526
I9
sS'work'
p4527
I6
sS'order'
p4528
I7
sS'production'
p4529
I5
sS'each'
p4530
I12
sS'too'
p4531
I1
sS'nations'
p4532
I7
sS'though'
p4533
I1
sS'techniques'
p4534
I6
sS'much'
p4535
I1
sS'is'
p4536
I62
sS'it'
p4537
I9
sS'in'
p4538
I92
sS'the'
p4539
I295
sS'ideas'
p4540
I6
sS'has'
p4541
I13
sS'birth'
p4542
I13
sS'old'
p4543
I5
sS'for'
p4544
I51
sS'way'
p4545
I6
sS'form'
p4546
I5
sS'some'
p4547
I10
sS'can'
p4548
I9
sS'product'
p4549
I6
sS'year'
p4550
I5
sS'any'
p4551
I5
sS'on'
p4552
I23
sS'of'
p4553
I227
sS'industry'
p4554
I5
sS'with'
p4555
I30
sS'you'
p4556
I1
sS'to'
p4557
I94
sS'experience'
p4558
I6
sS'members'
p4559
I28
sS'plant'
p4560
I9
sg5
I214
sS'through'
p4561
I5
sS'house'
p4562
I5
sS'are'
p4563
I14
sS'both'
p4564
I1
sS'development'
p4565
I7
sS'world'
p4566
I8
sS'by'
p4567
I21
sS'into'
p4568
I10
sS'up'
p4569
I8
sS'from'
p4570
I12
sS'our'
p4571
I8
sS'their'
p4572
I7
sS'have'
p4573
I10
sS'which'
p4574
I13
sS'who'
p4575
I2
sS'ones'
p4576
I8
sS'she'
p4577
I3
sS'will'
p4578
I10
sg108
I3
sS'he'
p4579
I8
sS'life'
p4580
I7
ssS'through'
p4581
(dp4582
S'air'
p4583
I7
sS'new'
p4584
I6
sS'would'
p4585
I9
sS'my'
p4586
I9
sS'then'
p4587
I8
sS'them'
p4588
I10
sS'they'
p4589
I17
sS'bank'
p4590
I5
sS'went'
p4591
I14
sS'mind'
p4592
I6
sS'seen'
p4593
I5
sS'came'
p4594
I6
sS'just'
p4595
I5
sS'we'
p4596
I7
sS'been'
p4597
I8
sS'life'
p4598
I6
sS'has'
p4599
I8
sS'is'
p4600
I19
sS'it'
p4601
I32
sS'in'
p4602
I41
sS'several'
p4603
I6
sS'the'
p4604
I367
sS'had'
p4605
I32
sS'night'
p4606
I5
sS'people'
p4607
I5
sS'down'
p4608
I9
sS'way'
p4609
I12
sS'was'
p4610
I19
sS'when'
p4611
I5
sS'passage'
p4612
I5
sS'could'
p4613
I8
sS'be'
p4614
I16
sS'can'
p4615
I5
sg498
I6
sS'may'
p4616
I5
sS'so'
p4617
I5
sS'years'
p4618
I5
sS'window'
p4619
I10
sS'not'
p4620
I14
sS'one'
p4621
I8
sS'open'
p4622
I5
sS'that'
p4623
I26
sS'were'
p4624
I10
sS'only'
p4625
I7
sS'going'
p4626
I5
sS'get'
p4627
I5
sS'come'
p4628
I5
sS'dowex2chloride'
p4629
I6
sS'on'
p4630
I11
sS'or'
p4631
I14
sS'your'
p4632
I5
sS'her'
p4633
I17
sS'with'
p4634
I18
sS'af'
p4635
I9
sS'as'
p4636
I19
sS'at'
p4637
I13
sS'you'
p4638
I6
sS'all'
p4639
I22
sS'to'
p4640
I76
sS'pass'
p4641
I6
sS'door'
p4642
I15
sS'line'
p4643
I7
sS'its'
p4644
I12
sS'passed'
p4645
I19
sS'him'
p4646
I15
sS'are'
p4647
I11
sS'lived'
p4648
I7
sS'anode'
p4649
I5
sS'development'
p4650
I6
sS'world'
p4651
I6
sS'run'
p4652
I6
sS'by'
p4653
I9
sS'into'
p4654
I8
sS'long'
p4655
I5
sS'an'
p4656
I12
sS'having'
p4657
I5
sS'go'
p4658
I10
sS'body'
p4659
I7
sS'private'
p4660
I5
sS'from'
p4661
I13
sS'this'
p4662
I15
sS'of'
p4663
I140
sS'process'
p4664
I5
sS'light'
p4665
I5
sS'move'
p4666
I5
sS'their'
p4667
I12
sS'have'
p4668
I8
sS'which'
p4669
I21
sS'who'
p4670
I11
sS'words'
p4671
I5
sS'passing'
p4672
I12
sS'will'
p4673
I5
sg108
I11
sS'like'
p4674
I6
sS'but'
p4675
I10
sS'he'
p4676
I24
sS'other'
p4677
I6
ssS'forth'
p4678
(dp4679
S'set'
p4680
I14
sS'back'
p4681
I20
sS'of'
p4682
I3
sS'and'
p4683
I28
ssS'cite'
p4684
(dp4685
sS'where'
p4686
(dp4687
S'new'
p4688
I5
sS'told'
p4689
I1
sS'men'
p4690
I2
sS'until'
p4691
I1
sS'already'
p4692
I2
sS'my'
p4693
I3
sS'lay'
p4694
I5
sS'then'
p4695
I3
sS'they'
p4696
I42
sS'free'
p4697
I1
sS'girls'
p4698
I1
sS'seen'
p4699
I1
sS'cattle'
p4700
I1
sS'we'
p4701
I20
sS'against'
p4702
I1
sS'three'
p4703
I1
sS'been'
p4704
I11
sS'is'
p4705
I81
sS'if'
p4706
I1
sS'things'
p4707
I2
sS'several'
p4708
I2
sS'yet'
p4709
I1
sS'had'
p4710
I43
sS'has'
p4711
I9
sS'right'
p4712
I1
sS'people'
p4713
I3
sS'for'
p4714
I13
sS'way'
p4715
I1
sS'tell'
p4716
I5
sS'when'
p4717
I9
sS'alone'
p4718
I1
sS'cases'
p4719
I1
sS'can'
p4720
I18
sS'may'
p4721
I10
sS'such'
p4722
I2
sS'course'
p4723
I1
sS'still'
p4724
I6
sS'not'
p4725
I12
sS'now'
p4726
I3
sS'married'
p4727
I1
sS'first'
p4728
I2
sg1784
I1
sS'white'
p4729
I1
sS'that'
p4730
I16
sS'were'
p4731
I25
sS'and'
p4732
I73
sS'sat'
p4733
I5
sS'later'
p4734
I1
sS'behind'
p4735
I1
sS'only'
p4736
I4
sS'get'
p4737
I6
sS'held'
p4738
I2
sS'between'
p4739
I1
sS'many'
p4740
I4
sS'those'
p4741
I5
sS'these'
p4742
I4
sS'same'
p4743
I1
sS'being'
p4744
I3
sS'around'
p4745
I1
sS'or'
p4746
I7
sS'her'
p4747
I5
sS'there'
p4748
I16
sS'with'
p4749
I8
sS'as'
p4750
I10
sS'all'
p4751
I11
sS'children'
p4752
I1
sS'very'
p4753
I1
sS'joined'
p4754
I1
sS'large'
p4755
I2
sS'small'
p4756
I1
sS'what'
p4757
I3
sS'stood'
p4758
I6
sS'put'
p4759
I1
sS'two'
p4760
I4
sS'taken'
p4761
I1
sS'more'
p4762
I5
sS'playing'
p4763
I1
sS'good'
p4764
I1
sS'always'
p4765
I1
sS'members'
p4766
I2
sS'number'
p4767
I1
sS'least'
p4768
I1
sS'hotel'
p4769
I6
sS'determined'
p4770
I1
sS'officers'
p4771
I1
sS'also'
p4772
I4
sS'nothing'
p4773
I1
sS'clear'
p4774
I1
sS'his'
p4775
I18
sS'him'
p4776
I3
sS'set'
p4777
I1
sS'are'
p4778
I31
sS'both'
p4779
I2
sS'last'
p4780
I1
sS'dances'
p4781
I1
sS'while'
p4782
I1
sS'ready'
p4783
I1
sS'used'
p4784
I2
sS'some'
p4785
I7
sS'by'
p4786
I7
sS'within'
p4787
I1
sS'called'
p4788
I1
sS'go'
p4789
I8
sS'young'
p4790
I1
sS'others'
p4791
I1
sS'great'
p4792
I2
sS'names'
p4793
I1
sS'few'
p4794
I1
sS'women'
p4795
I1
sS'this'
p4796
I6
sS'doing'
p4797
I2
sS'our'
p4798
I3
sS'out'
p4799
I5
sS'their'
p4800
I3
sS'able'
p4801
I1
sS'which'
p4802
I2
sS'who'
p4803
I1
sS'af'
p4804
I39
sS'will'
p4805
I6
sS'off'
p4806
I2
sS'well'
p4807
I1
sS'thought'
p4808
I1
sg498
I1
sS'point'
p4809
I14
sS'like'
p4810
I2
sS'because'
p4811
I1
sS'about'
p4812
I1
sS'much'
p4813
I1
sS'made'
p4814
I1
sS'whether'
p4815
I1
sS'other'
p4816
I6
ssS'threw'
p4817
(dp4818
S'all'
p4819
I1
sS'with'
p4820
I1
sS'to'
p4821
I3
sS'window'
p4822
I1
sS'then'
p4823
I1
sS'them'
p4824
I1
sS'they'
p4825
I1
sS'him'
p4826
I3
sS'down'
p4827
I2
sS'on'
p4828
I1
sS'of'
p4829
I1
sS'from'
p4830
I1
sS'her'
p4831
I1
sS'was'
p4832
I2
sS'door'
p4833
I1
sS'but'
p4834
I1
sS'he'
p4835
I5
sS'this'
p4836
I1
sS'at'
p4837
I1
sS'it'
p4838
I6
sS'in'
p4839
I3
sS'the'
p4840
I19
sg108
I2
sS'light'
p4841
I1
sS'came'
p4842
I1
ssS'week'
p4843
(dp4844
S'during'
p4845
I11
sS'each'
p4846
I8
sS'for'
p4847
I18
sS'after'
p4848
I7
sS'last'
p4849
I14
sS'of'
p4850
I27
sS'one'
p4851
I11
sS'next'
p4852
I5
sS'was'
p4853
I6
sS'as'
p4854
I5
sS'at'
p4855
I7
sS'in'
p4856
I19
sg5
I51
sg108
I8
sS'the'
p4857
I55
sS'once'
p4858
I7
ssS'then'
p4859
(dp4860
S'ever'
p4861
I1
sS'men'
p4862
I1
sS'mr'
p4863
I1
sS'worse'
p4864
I1
sS'turn'
p4865
I7
sS'president'
p4866
I1
sS'before'
p4867
I2
sS'better'
p4868
I2
sS'good'
p4869
I1
sS'went'
p4870
I11
sS'used'
p4871
I1
sS'got'
p4872
I5
sS'said'
p4873
I19
sS'never'
p4874
I1
sS'country'
p4875
I1
sS'much'
p4876
I2
sS'life'
p4877
I1
sS'mother'
p4878
I5
sS'left'
p4879
I8
sS'human'
p4880
I1
sS'has'
p4881
I4
sS'right'
p4882
I10
sS'slightly'
p4883
I2
sS'down'
p4884
I11
sS'old'
p4885
I1
sS'ten'
p4886
I1
sS'true'
p4887
I1
sS'longer'
p4888
I2
sS'level'
p4889
I1
sS'years'
p4890
I3
sS'half'
p4891
I1
sS'little'
p4892
I4
sS'turned'
p4893
I9
sS'any'
p4894
I4
sS'only'
p4895
I11
sS'different'
p4896
I1
sS'no'
p4897
I3
sS'rest'
p4898
I1
sg2306
I5
sS'or'
p4899
I6
sS'area'
p4900
I1
sS'again'
p4901
I5
sS'mass'
p4902
I1
sS'far'
p4903
I1
sS'past'
p4904
I1
sS'put'
p4905
I5
sS'more'
p4906
I7
sS'rather'
p4907
I1
sS'its'
p4908
I1
sS'feet'
p4909
I1
sS'hundred'
p4910
I1
sS'most'
p4911
I2
sS'nothing'
p4912
I2
sS'during'
p4913
I1
sS'common'
p4914
I1
sS'became'
p4915
I9
sS'else'
p4916
I1
sS'moment'
p4917
I6
sS'lower'
p4918
I1
sS'back'
p4919
I9
sS'per'
p4920
I1
sS'anything'
p4921
I2
sS'considerably'
p4922
I1
sS'came'
p4923
I8
sS'women'
p4924
I1
sS'others'
p4925
I1
sS'started'
p4926
I1
sS'something'
p4927
I1
sS'why'
p4928
I7
sS'stronger'
p4929
I1
sS'well'
p4930
I5
sS'other'
p4931
I5
ssS'begin'
p4932
(dp4933
S'able'
p4934
I1
sS'only'
p4935
I1
sS'they'
p4936
I2
sS'not'
p4937
I2
sS'for'
p4938
I1
sS'by'
p4939
I4
sS'on'
p4940
I1
sS'of'
p4941
I4
sS'one'
p4942
I1
sS'was'
p4943
I1
sS'that'
p4944
I5
sS'about'
p4945
I1
sS'but'
p4946
I1
sS'than'
p4947
I1
sS'he'
p4948
I2
sS'this'
p4949
I2
sS'and'
p4950
I10
sS'is'
p4951
I2
sS'an'
p4952
I2
sS'his'
p4953
I1
sS'at'
p4954
I3
sS'in'
p4955
I3
sS'as'
p4956
I2
sS'no'
p4957
I1
sS'which'
p4958
I2
sg5
I5
sS'the'
p4959
I18
ssS'buy'
p4960
(dp4961
S'money'
p4962
I1
sS'through'
p4963
I1
sS'its'
p4964
I2
sS'him'
p4965
I1
sS'to'
p4966
I31
sS'do'
p4967
I2
sS'them'
p4968
I1
sS'his'
p4969
I4
sS'they'
p4970
I2
sS'half'
p4971
I1
sS'not'
p4972
I2
sS'day'
p4973
I1
sS'name'
p4974
I1
sS'like'
p4975
I1
sS'did'
p4976
I1
sS'good'
p4977
I1
sS'she'
p4978
I1
sS'small'
p4979
I1
sS'some'
p4980
I1
sS'for'
p4981
I4
sS'state'
p4982
I1
sS'can'
p4983
I1
sS'alone'
p4984
I1
sS'both'
p4985
I1
sS'about'
p4986
I2
sS'would'
p4987
I3
sS'of'
p4988
I3
sS'could'
p4989
I2
sS'or'
p4990
I5
sS'one'
p4991
I2
sS'from'
p4992
I1
sS'her'
p4993
I2
sS'two'
p4994
I2
sS'more'
p4995
I2
sS'himself'
p4996
I1
sS'that'
p4997
I3
sS'offered'
p4998
I1
sS'with'
p4999
I1
sS'than'
p5000
I3
sS'he'
p5001
I3
sS'me'
p5002
I1
sS'mrs'
p5003
I1
sS'this'
p5004
I1
sS'was'
p5005
I3
sS'will'
p5006
I1
sS'were'
p5007
I1
sS'and'
p5008
I6
sS'have'
p5009
I1
sS'is'
p5010
I2
sS'it'
p5011
I3
sS'in'
p5012
I2
sS'if'
p5013
I1
sS'when'
p5014
I1
sS'which'
p5015
I1
sS'may'
p5016
I2
sS'on'
p5017
I2
sg5
I11
sg108
I1
sS'sometimes'
p5018
I1
sS'the'
p5019
I4
ssS'led'
p5020
(dp5021
S'had'
p5022
I6
sS'has'
p5023
I6
sS'have'
p5024
I5
ssS'passed'
p5025
(dp5026
S'years'
p5027
I2
sS'through'
p5028
I19
sS'had'
p5029
I17
sS'they'
p5030
I12
sS'day'
p5031
I5
sS'dowex2chloride'
p5032
I5
sS'she'
p5033
I7
sS'since'
p5034
I5
sS'on'
p5035
I13
sS'of'
p5036
I6
sS'times'
p5037
I1
sS'in'
p5038
I7
sS'when'
p5039
I7
ssS'presence'
p5040
(dp5041
S'its'
p5042
I5
sS'to'
p5043
I1
sS'his'
p5044
I10
sS'by'
p5045
I5
sS'of'
p5046
I40
sS'in'
p5047
I17
ssS'knew'
p5048
(dp5049
S'to'
p5050
I17
sS'from'
p5051
I1
sS'work'
p5052
I1
sg5
I12
sS'ones'
p5053
I1
sS'each'
p5054
I1
sS'house'
p5055
I1
sS'our'
p5056
I1
sS'their'
p5057
I1
sS'too'
p5058
I5
sS'any'
p5059
I1
sS'which'
p5060
I2
sS'though'
p5061
I5
sS'she'
p5062
I38
sS'are'
p5063
I1
sS'angie'
p5064
I5
sS'never'
p5065
I15
sS'both'
p5066
I5
sS'much'
p5067
I5
sS'life'
p5068
I1
sS'will'
p5069
I1
sS'is'
p5070
I1
sS'it'
p5071
I39
sS'in'
p5072
I17
sS'who'
p5073
I16
sg108
I65
sS'the'
p5074
I61
sS'some'
p5075
I2
sS'for'
p5076
I7
sS'by'
p5077
I2
sS'on'
p5078
I2
sS'of'
p5079
I23
sS'into'
p5080
I1
sS'way'
p5081
I1
sS'with'
p5082
I2
sS'he'
p5083
I125
sS'up'
p5084
I1
sS'you'
p5085
I11
ssS'weak'
p5086
(dp5087
S'hands'
p5088
I5
sS'for'
p5089
I4
sS'of'
p5090
I4
sS'as'
p5091
I1
sS'in'
p5092
I2
sg5
I4
sS'the'
p5093
I7
ssS'effect'
p5094
(dp5095
S'to'
p5096
I35
sS'this'
p5097
I8
sg5
I15
sS'its'
p5098
I5
sS'that'
p5099
I9
sS'have'
p5100
I13
sS'the'
p5101
I102
sS'his'
p5102
I6
sS'and'
p5103
I20
sS'an'
p5104
I12
sS'is'
p5105
I14
sS'in'
p5106
I18
sS'same'
p5107
I5
sS'had'
p5108
I6
sS'for'
p5109
I6
sS'on'
p5110
I24
sS'of'
p5111
I46
sS'he'
p5112
I7
sS'as'
p5113
I8
sS'having'
p5114
I5
ssS'bear'
p5115
(dp5116
S'to'
p5117
I18
sS'on'
p5118
I6
ssS'site'
p5119
(dp5120
S'his'
p5121
I1
sS'out'
p5122
I1
ssS'rise'
p5123
(dp5124
S'with'
p5125
I5
sS'will'
p5126
I6
sS'which'
p5127
I6
ssS'plane'
p5128
(dp5129
S'of'
p5130
I27
sS'pencil'
p5131
I5
sS'shear'
p5132
I7
sS'picture'
p5133
I6
sS'the'
p5134
I65
ssS'hear'
p5135
(dp5136
S'just'
p5137
I1
sS'had'
p5138
I1
sS'around'
p5139
I1
sS'now'
p5140
I1
sS'people'
p5141
I1
sS'out'
p5142
I1
sS'even'
p5143
I1
sS'for'
p5144
I3
sS'come'
p5145
I1
sS'her'
p5146
I2
sS'which'
p5147
I1
sS'was'
p5148
I7
sS'that'
p5149
I5
sS'because'
p5150
I1
sS'with'
p5151
I3
sS'this'
p5152
I2
sS'us'
p5153
I1
sS'is'
p5154
I2
sS'as'
p5155
I1
sS'at'
p5156
I1
sS'in'
p5157
I6
sS'if'
p5158
I1
sS'no'
p5159
I1
sS'but'
p5160
I4
sg5
I10
sS'well'
p5161
I1
ssS'here'
p5162
(dp5163
S'all'
p5164
I10
sS'even'
p5165
I5
sS'wait'
p5166
I5
sS'ago'
p5167
I5
sS'this'
p5168
I11
sS'car'
p5169
I5
sg5
I44
sS'years'
p5170
I5
sS'before'
p5171
I5
sS'now'
p5172
I13
sS'out'
p5173
I26
sS'which'
p5174
I8
sS'that'
p5175
I27
sS'were'
p5176
I9
sS'have'
p5177
I17
sS'get'
p5178
I8
sS'are'
p5179
I24
sS'come'
p5180
I12
sS'been'
p5181
I10
sS'these'
p5182
I7
sS'will'
p5183
I6
sS'is'
p5184
I45
sS'in'
p5185
I44
sS'if'
p5186
I5
sS'used'
p5187
I5
sS'well'
p5188
I5
sS'just'
p5189
I6
sS'had'
p5190
I9
sS'around'
p5191
I8
sS'because'
p5192
I6
sS'people'
p5193
I5
sS'back'
p5194
I5
sS'for'
p5195
I23
sS'be'
p5196
I26
sS'on'
p5197
I17
sS'right'
p5198
I10
sS'her'
p5199
I9
sS'there'
p5200
I14
sS'was'
p5201
I36
sS'but'
p5202
I20
sS'with'
p5203
I18
sS'up'
p5204
I6
sS'am'
p5205
I6
sS'as'
p5206
I10
sS'at'
p5207
I7
sS'us'
p5208
I5
sS'no'
p5209
I13
sS'stay'
p5210
I12
sS'came'
p5211
I7
sS'time'
p5212
I5
ssS'rain'
p5213
(dp5214
S'had'
p5215
I5
sS'or'
p5216
I5
sS'that'
p5217
I8
sS'and'
p5218
I12
sg5
I9
sS'the'
p5219
I33
ssS'affect'
p5220
(dp5221
S'its'
p5222
I1
sS'to'
p5223
I5
sS'this'
p5224
I1
sS'on'
p5225
I1
sS'of'
p5226
I8
sS'that'
p5227
I1
sS'and'
p5228
I2
sS'in'
p5229
I1
sg5
I1
sS'the'
p5230
I16
ssS'hole'
p5231
(dp5232
S'his'
p5233
I1
sS'on'
p5234
I2
sS'of'
p5235
I2
sS'or'
p5236
I1
sS'was'
p5237
I3
sS'with'
p5238
I2
sS'this'
p5239
I1
sS'and'
p5240
I1
sS'as'
p5241
I2
sS'the'
p5242
I16
ssS'quite'
p5243
(dp5244
S'to'
p5245
I20
sS'never'
p5246
I8
sS'from'
p5247
I8
sS'would'
p5248
I6
sS'this'
p5249
I6
sS'may'
p5250
I5
sS'not'
p5251
I18
sS'one'
p5252
I8
sS'that'
p5253
I26
sS'were'
p5254
I8
sS'have'
p5255
I7
sS'which'
p5256
I7
sS'are'
p5257
I11
sS'been'
p5258
I6
sS'is'
p5259
I35
sS'it'
p5260
I25
sS'different'
p5261
I11
sS'well'
p5262
I5
sS'be'
p5263
I9
sS'as'
p5264
I14
ssS'by'
p5265
(dp5266
S'four'
p5267
I9
sS'increasing'
p5268
I5
sS'reported'
p5269
I6
sS'military'
p5270
I5
sS'explained'
p5271
I8
sS'brought'
p5272
I15
sS'anode'
p5273
I5
sS'example'
p5274
I5
sS'effects'
p5275
I6
sS'threatened'
p5276
I5
sS'service'
p5277
I5
sS'shall'
p5278
I5
sS'letter'
p5279
I5
sS'came'
p5280
I5
sS'saying'
p5281
I7
sS'result'
p5282
I7
sS'men'
p5283
I16
sS'nature'
p5284
I8
sS'extent'
p5285
I5
sS'accident'
p5286
I6
sS'country'
p5287
I7
sS'union'
p5288
I7
sS'much'
p5289
I11
sS'life'
p5290
I9
sS'had'
p5291
I32
sS'has'
p5292
I35
sS'birth'
p5293
I5
sS'steps'
p5294
I5
sS'right'
p5295
I5
sS'old'
p5296
I8
sS'people'
p5297
I23
sS'for'
p5298
I74
sS'o'
p5299
I5
sS'statements'
p5300
I5
sS'authorized'
p5301
I6
sS'music'
p5302
I8
sS'later'
p5303
I6
sS'time'
p5304
I35
sS'solved'
p5305
I5
sS'current'
p5306
I6
sS'alone'
p5307
I9
sS'along'
p5308
I5
sS'accomplished'
p5309
I10
sS'love'
p5310
I7
sS'visual'
p5311
I5
sS'values'
p5312
I6
sS'following'
p5313
I6
sS'such'
p5314
I30
sS'so'
p5315
I32
sS'years'
p5316
I13
sS'troubled'
p5317
I5
sS'formula'
p5318
I5
sS'million'
p5319
I5
sS'one'
p5320
I61
sg1784
I9
sS'turned'
p5321
I5
sS'federal'
p5322
I11
sS'where'
p5323
I6
sS'many'
p5324
I16
sS's'
p5325
I6
sS'formed'
p5326
I7
sS'situation'
p5327
I6
sS'costs'
p5328
I6
sS'being'
p5329
I41
sS'world'
p5330
I9
sS'power'
p5331
I6
sS'act'
p5332
I7
sS'her'
p5333
I41
sS'with'
p5334
I68
sS'af'
p5335
I47
sS'an'
p5336
I76
sS'as'
p5337
I100
sS'congress'
p5338
I6
sS'caused'
p5339
I19
sS'to'
p5340
I267
sS'joined'
p5341
I9
sS'large'
p5342
I8
sS'small'
p5343
I7
sS'section'
p5344
I6
sS'method'
p5345
I14
sS'action'
p5346
I20
sS'more'
p5347
I16
sS'door'
p5348
I7
sS'states'
p5349
I23
sS'information'
p5350
I7
sS'disturbed'
p5351
I8
sS'its'
p5352
I43
sS'always'
p5353
I9
sS'found'
p5354
I6
sS'engendered'
p5355
I6
sS'operation'
p5356
I10
sS'research'
p5357
I7
sS'denoted'
p5358
I6
sS'number'
p5359
I17
sS'determined'
p5360
I25
sS'also'
p5361
I17
sS'sometimes'
p5362
I5
sS'set'
p5363
I11
sS'church'
p5364
I7
sS'fire'
p5365
I6
sS'recent'
p5366
I9
sS'notte'
p5367
I6
sS'individuals'
p5368
I5
sS'methods'
p5369
I12
sS'senate'
p5370
I6
sS'be'
p5371
I229
sS'agreement'
p5372
I7
sS'by'
p5373
I9
sS'into'
p5374
I24
sS'inches'
p5375
I9
sS'line'
p5376
I7
sS'up'
p5377
I32
sS'us'
p5378
I12
sS'dr'
p5379
I5
sS'having'
p5380
I9
sS'illustrated'
p5381
I8
sS'sent'
p5382
I7
sS'led'
p5383
I8
sS'great'
p5384
I11
sS'opinion'
p5385
I5
sS'this'
p5386
I78
sS'process'
p5387
I5
sS'high'
p5388
I6
sS'produced'
p5389
I16
sS'accompanied'
p5390
I18
sS'could'
p5391
I26
sS'owned'
p5392
I6
sS'face'
p5393
I5
sS'fact'
p5394
I14
sS'should'
p5395
I8
sS'means'
p5396
I52
sS'upon'
p5397
I6
sS'off'
p5398
I12
sS'administered'
p5399
I7
sS'less'
p5400
I12
sS'increased'
p5401
I8
sS'government'
p5402
I17
sS'become'
p5403
I6
sS'pressure'
p5404
I9
sS'stage'
p5405
I7
sS'established'
p5406
I5
sS'above'
p5407
I6
sS'told'
p5408
I5
sS'obtained'
p5409
I15
sS'separated'
p5410
I6
sS'work'
p5411
I16
sS'indicated'
p5412
I7
sS'law'
p5413
I12
sS'order'
p5414
I6
sS'then'
p5415
I14
sS'them'
p5416
I32
sS'affected'
p5417
I8
sS'they'
p5418
I45
sS'created'
p5419
I11
sS'another'
p5420
I10
sS'john'
p5421
I12
sS'forces'
p5422
I8
sS'make'
p5423
I5
sS'do'
p5424
I13
sS'du'
p5425
I6
sS'secretary'
p5426
I10
sS'cattle'
p5427
I5
sS'away'
p5428
I11
sS'we'
p5429
I28
sS'received'
p5430
I9
sS'condemned'
p5431
I5
sS'tissue'
p5432
I5
sS'hand'
p5433
I9
sS'the'
p5434
I1459
sS'board'
p5435
I11
sS'evidenced'
p5436
I9
sS'way'
p5437
I21
sS'was'
p5438
I278
sS'war'
p5439
I11
sS'evidence'
p5440
I5
sS'holding'
p5441
I6
sS'governed'
p5442
I7
sS'presented'
p5443
I5
sS'change'
p5444
I7
sS'marked'
p5445
I5
sS'can'
p5446
I39
sS'court'
p5447
I8
sS'rather'
p5448
I7
sS'still'
p5449
I11
sS'half'
p5450
I5
sS'not'
p5451
I81
sS'now'
p5452
I27
sS'year'
p5453
I12
sS'shown'
p5454
I8
sS'increase'
p5455
I6
sS'british'
p5456
I6
sS'that'
p5457
I110
sS'than'
p5458
I22
sS'mrs'
p5459
I10
sS'proclamation'
p5460
I7
sS'only'
p5461
I48
sg554
I9
sS'justified'
p5462
I5
sS'these'
p5463
I22
sS'death'
p5464
I8
sS'early'
p5465
I6
sS'using'
p5466
I9
sS'business'
p5467
I7
sS'greatly'
p5468
I7
sS'your'
p5469
I8
sS'area'
p5470
I9
sS'surrounded'
p5471
I10
sS'very'
p5472
I9
sS'inspired'
p5473
I6
sS'amount'
p5474
I6
sS'family'
p5475
I5
sS'taken'
p5476
I16
sS'helped'
p5477
I5
sS'history'
p5478
I6
sg5
I485
sS'held'
p5479
I14
sS'systems'
p5480
I5
sS'dominated'
p5481
I5
sS'american'
p5482
I12
sS'authors'
p5483
I5
sS'sponsored'
p5484
I13
sS'clear'
p5485
I5
sS'during'
p5486
I5
sS'probably'
p5487
I5
sS'conditions'
p5488
I6
sS'both'
p5489
I11
sS'headed'
p5490
I6
sS'described'
p5491
I12
sS'while'
p5492
I6
sS'used'
p5493
I21
sS'some'
p5494
I31
sS'faith'
p5495
I6
sS'placing'
p5496
I5
sS'himself'
p5497
I15
sS'application'
p5498
I6
sS'required'
p5499
I10
sS'go'
p5500
I5
sS'control'
p5501
I6
sS'hit'
p5502
I5
sS'special'
p5503
I8
sS'route'
p5504
I5
sS'times'
p5505
I5
sS'she'
p5506
I16
sS'multiplying'
p5507
I6
sS'computed'
p5508
I5
sS'state'
p5509
I14
sS'addition'
p5510
I6
sS'cent'
p5511
I5
sS'surface'
p5512
I8
sg108
I34
sS'well'
p5513
I10
sS'he'
p5514
I73
sS'force'
p5515
I11
sS'even'
p5516
I11
sS'new'
p5517
I33
sS'never'
p5518
I8
sS'met'
p5519
I5
sS'engineers'
p5520
I5
sS'moral'
p5521
I6
sS'inhabited'
p5522
I5
sS'president'
p5523
I5
sS'personal'
p5524
I5
sS'better'
p5525
I6
sS'went'
p5526
I6
sS'side'
p5527
I19
sS'mean'
p5528
I7
sS'distance'
p5529
I8
sS'modern'
p5530
I5
sS'seen'
p5531
I5
sS'regular'
p5532
I6
sS'observation'
p5533
I5
sS'medical'
p5534
I6
sS'selected'
p5535
I8
sS'suggested'
p5536
I9
sS'against'
p5537
I8
sS'three'
p5538
I7
sS'interest'
p5539
I6
sS'is'
p5540
I270
sS'it'
p5541
I99
sS'in'
p5542
I213
sS'if'
p5543
I18
sS'human'
p5544
I6
sS'down'
p5545
I17
sS'form'
p5546
I8
sS'did'
p5547
I6
sS'filled'
p5548
I7
sS'french'
p5549
I5
sS'corporation'
p5550
I6
sS'making'
p5551
I8
sS'may'
p5552
I25
sS'man'
p5553
I18
sS'killed'
p5554
I7
sS'girl'
p5555
I6
sS'first'
p5556
I15
sS'long'
p5557
I11
sS'little'
p5558
I12
sS'eyes'
p5559
I5
sS'were'
p5560
I119
sS'occupied'
p5561
I10
sS'paid'
p5562
I12
sS'black'
p5563
I5
sS'get'
p5564
I9
sS'offered'
p5565
I6
sS'those'
p5566
I28
sS'same'
p5567
I10
sS'money'
p5568
I10
sS'either'
p5569
I13
sS'measuring'
p5570
I8
sS'violence'
p5571
I5
sS'general'
p5572
I13
sS'again'
p5573
I6
sS'field'
p5574
I5
sS'students'
p5575
I6
sS'starting'
p5576
I5
sS'public'
p5577
I16
sS'movement'
p5578
I5
sS'division'
p5579
I5
sS'published'
p5580
I5
sS'readily'
p5581
I5
sS'two'
p5582
I31
sS'numbers'
p5583
I5
sS'through'
p5584
I8
sS'late'
p5585
I6
sS'association'
p5586
I8
sS'easily'
p5587
I5
sS'house'
p5588
I6
sS'members'
p5589
I14
sS'done'
p5590
I15
sS'least'
p5591
I9
sS'part'
p5592
I9
sS'built'
p5593
I5
sS'most'
p5594
I12
sS'foreign'
p5595
I6
sS'simple'
p5596
I6
sS'simply'
p5597
I8
sS'gas'
p5598
I6
sS'replaced'
p5599
I13
sS'itself'
p5600
I7
sS'development'
p5601
I6
sS'cut'
p5602
I7
sS'big'
p5603
I6
sS'often'
p5604
I7
sS'back'
p5605
I6
sS'per'
p5606
I5
sS'use'
p5607
I16
sS'from'
p5608
I59
sS'directed'
p5609
I8
sS'prepared'
p5610
I9
sS'missile'
p5611
I5
sS'putting'
p5612
I5
sS'giving'
p5613
I5
sS'body'
p5614
I10
sS'themselves'
p5615
I7
sS'stock'
p5616
I8
sS'day'
p5617
I10
sS'have'
p5618
I52
sS'throat'
p5619
I5
sS'supported'
p5620
I17
sS'drawn'
p5621
I5
sS'national'
p5622
I11
sS'taking'
p5623
I11
sS'at'
p5624
I43
sS'almost'
p5625
I8
sS'material'
p5626
I6
sS'position'
p5627
I9
sS'like'
p5628
I9
sS'about'
p5629
I12
sS'but'
p5630
I41
sS'limited'
p5631
I5
sS'under'
p5632
I10
sS'every'
p5633
I5
sS'direct'
p5634
I6
sS'hundreds'
p5635
I5
sS'represented'
p5636
I13
sS'settled'
p5637
I7
sS'would'
p5638
I26
sS'must'
p5639
I8
sS'me'
p5640
I18
sS'mr'
p5641
I13
sS'my'
p5642
I11
sS'end'
p5643
I5
sS'over'
p5644
I13
sS'staining'
p5645
I5
sS'destroyed'
p5646
I8
sS'each'
p5647
I15
sS'group'
p5648
I6
sS'god'
p5649
I12
sS'laid'
p5650
I5
sS'already'
p5651
I5
sS'though'
p5652
I6
sS'earth'
p5653
I7
sS'however'
p5654
I5
sS'been'
p5655
I112
sS'several'
p5656
I14
sS'mother'
p5657
I5
sS'followed'
p5658
I32
sS'advanced'
p5659
I5
sS'50'
p5660
I5
sS'specific'
p5661
I6
sS'head'
p5662
I6
sS'heat'
p5663
I7
sS'no'
p5664
I25
sS'when'
p5665
I20
sS'level'
p5666
I5
sS'water'
p5667
I5
sS'groups'
p5668
I7
sg498
I6
sS'term'
p5669
I5
sS'name'
p5670
I15
sS'place'
p5671
I6
sS'given'
p5672
I29
sS'white'
p5673
I7
sS'and'
p5674
I437
sS'any'
p5675
I29
sS'considered'
p5676
I7
sS'written'
p5677
I8
sS'college'
p5678
I7
sS'come'
p5679
I8
sS'reaction'
p5680
I5
sS'period'
p5681
I5
sS'direction'
p5682
I8
sS'case'
p5683
I6
sS'good'
p5684
I6
sS'week'
p5685
I7
sS'persons'
p5686
I6
sS'without'
p5687
I5
sS'accepted'
p5688
I10
sS'reduced'
p5689
I7
sS'provided'
p5690
I17
sS'on'
p5691
I64
sS'of'
p5692
I568
sS'stand'
p5693
I6
sS'or'
p5694
I85
sS'there'
p5695
I8
sS'applying'
p5696
I5
sS'together'
p5697
I9
sS'controlled'
p5698
I6
sS'wife'
p5699
I6
sS'all'
p5700
I35
sS'lack'
p5701
I5
sS'program'
p5702
I10
sS'list'
p5703
I5
sS'rate'
p5704
I6
sS'design'
p5705
I6
sS'what'
p5706
I25
sS'deeply'
p5707
I5
sS'influenced'
p5708
I9
sS'sale'
p5709
I5
sS'characterized'
p5710
I6
sS'passed'
p5711
I5
sS'measured'
p5712
I7
sS'traditional'
p5713
I5
sS'his'
p5714
I109
sS'him'
p5715
I46
sS'achieved'
p5716
I6
sS'are'
p5717
I130
sS'various'
p5718
I9
sS'attention'
p5719
I6
sg681
I9
sS'higher'
p5720
I5
sS'know'
p5721
I6
sS'workers'
p5722
I5
sS'called'
p5723
I11
sS'problems'
p5724
I5
sS'generated'
p5725
I6
sS'united'
p5726
I15
sS'light'
p5727
I8
sS'covered'
p5728
I13
sS'our'
p5729
I17
sS'out'
p5730
I33
sS'york'
p5731
I6
sS'their'
p5732
I52
sS'which'
p5733
I54
sS'who'
p5734
I57
sS'class'
p5735
I6
sS'local'
p5736
I12
sS'ones'
p5737
I5
sS'table'
p5738
I6
sS'last'
p5739
I6
sS'present'
p5740
I5
sS'will'
p5741
I20
sS'member'
p5742
I6
sS'point'
p5743
I5
sS'carried'
p5744
I8
sS'own'
p5745
I18
sS'made'
p5746
I61
sS'other'
p5747
I32
ssS'me'
p5748
(dp5749
S'all'
p5750
I12
sS'forget'
p5751
I1
sS'month'
p5752
I5
sS'only'
p5753
I5
sS'saw'
p5754
I3
sS'wished'
p5755
I1
sS'alma'
p5756
I1
sS'did'
p5757
I8
sS'die'
p5758
I2
sS'pass'
p5759
I1
sS'even'
p5760
I4
sS'what'
p5761
I15
sS'couldnt'
p5762
I1
sS'ever'
p5763
I2
sS'let'
p5764
I42
sS'half'
p5765
I1
sS'changed'
p5766
I1
sS'later'
p5767
I2
sS'usually'
p5768
I1
sS'theres'
p5769
I1
sS'put'
p5770
I3
sS'should'
p5771
I6
sS'yes'
p5772
I1
sS'started'
p5773
I1
sS'hold'
p5774
I2
sS'must'
p5775
I7
sS'recall'
p5776
I1
sS'work'
p5777
I2
sS'cant'
p5778
I3
sS'other'
p5779
I1
sS'can'
p5780
I8
sS'growing'
p5781
I1
sS'my'
p5782
I28
sS'heard'
p5783
I1
sS'want'
p5784
I10
sS'rather'
p5785
I1
sS'write'
p5786
I4
sS'how'
p5787
I7
sS'may'
p5788
I1
sS'after'
p5789
I5
sS'realized'
p5790
I1
sS'maybe'
p5791
I2
sS'voice'
p5792
I1
sS'so'
p5793
I11
sS'replied'
p5794
I1
sS'soon'
p5795
I1
sS'held'
p5796
I1
sS'mentioned'
p5797
I1
sS'hell'
p5798
I1
sS'still'
p5799
I2
sS'but'
p5800
I35
sS'better'
p5801
I1
sS'might'
p5802
I2
sS'them'
p5803
I9
sS'guess'
p5804
I1
sS'mention'
p5805
I1
sS'not'
p5806
I28
sS'nor'
p5807
I1
sS'wont'
p5808
I2
sS'always'
p5809
I5
sS'stopped'
p5810
I2
sS'found'
p5811
I1
sS'went'
p5812
I6
sS'mean'
p5813
I1
sS'since'
p5814
I2
sS'got'
p5815
I2
sS'drink'
p5816
I1
sS'reason'
p5817
I1
sS'could'
p5818
I12
sS'keep'
p5819
I1
sS'thing'
p5820
I3
sS'think'
p5821
I3
sS'first'
p5822
I6
sS'dont'
p5823
I17
sS'feel'
p5824
I6
sS'done'
p5825
I2
sS'another'
p5826
I1
sS'such'
p5827
I1
sS'tomorrow'
p5828
I1
sS'too'
p5829
I6
sS'believe'
p5830
I4
sS'remember'
p5831
I2
sS'street'
p5832
I1
sS'tractor'
p5833
I1
sS'glass'
p5834
I1
sS'case'
p5835
I1
sS'say'
p5836
I4
sS'have'
p5837
I21
sS'seen'
p5838
I3
sS'seem'
p5839
I1
sS'also'
p5840
I1
sS'sure'
p5841
I2
sS'shall'
p5842
I1
sS'any'
p5843
I3
sS'knew'
p5844
I1
sS'most'
p5845
I2
sS'why'
p5846
I8
sS'sometimes'
p5847
I1
sS'show'
p5848
I2
sS'fear'
p5849
I1
sS'find'
p5850
I4
sS'aint'
p5851
I1
sS'hope'
p5852
I1
sS'do'
p5853
I17
sS'get'
p5854
I8
sS'cannot'
p5855
I1
sS'him'
p5856
I12
sS'where'
p5857
I4
sS'wrote'
p5858
I2
sS'mind'
p5859
I1
sS'see'
p5860
I12
sS'im'
p5861
I2
sS'best'
p5862
I1
sS'wonder'
p5863
I2
sS'said'
p5864
I33
sS'neither'
p5865
I1
sS'we'
p5866
I4
sS'never'
p5867
I7
sS'however'
p5868
I1
sS'recent'
p5869
I1
sS'last'
p5870
I2
sS'many'
p5871
I3
sS'assure'
p5872
I1
sS'became'
p5873
I2
sS'liked'
p5874
I1
sS'had'
p5875
I31
sS'speak'
p5876
I1
sS'been'
p5877
I5
sS'much'
p5878
I2
sS'child'
p5879
I1
sS'myself'
p5880
I1
sS'these'
p5881
I1
sS'will'
p5882
I11
sS'suppose'
p5883
I4
sS'promised'
p5884
I1
sS'ive'
p5885
I1
sS'if'
p5886
I16
sS'moment'
p5887
I1
sS'try'
p5888
I2
sS'youre'
p5889
I1
sS'well'
p5890
I3
sS'thought'
p5891
I3
sS'the'
p5892
I137
sS'left'
p5893
I2
sS'being'
p5894
I2
sS'now'
p5895
I9
sS'seems'
p5896
I19
sS'read'
p5897
I1
sS'know'
p5898
I5
sS'like'
p5899
I6
sS'hadnt'
p5900
I1
sS'old'
p5901
I1
sS'understand'
p5902
I1
sS'oh'
p5903
I1
sS'though'
p5904
I2
sS'be'
p5905
I13
sS'dollars'
p5906
I1
sS'stand'
p5907
I1
sS'or'
p5908
I4
sS'into'
p5909
I4
sS'ill'
p5910
I2
sS'live'
p5911
I1
sS'noticed'
p5912
I1
sS'was'
p5913
I42
sS'didnt'
p5914
I5
sS'wish'
p5915
I1
sS'us'
p5916
I1
sS'until'
p5917
I1
sS'again'
p5918
I1
sS'gone'
p5919
I1
sS'certain'
p5920
I1
sS'am'
p5921
I6
sS'as'
p5922
I30
sS'no'
p5923
I7
sS'when'
p5924
I16
sS'really'
p5925
I1
sS'felt'
p5926
I2
sS'ago'
p5927
I1
sS'wife'
p5928
I1
sS'time'
p5929
I7
sS'once'
p5930
I3
ssS'past'
p5931
(dp5932
S'on'
p5933
I1
sS'had'
p5934
I3
sS'years'
p5935
I17
sS'through'
p5936
I4
sS'they'
p5937
I1
sS'day'
p5938
I1
sS'year'
p5939
I9
sS'times'
p5940
I5
sS'than'
p5941
I5
sS'during'
p5942
I13
sS'she'
p5943
I1
sS'these'
p5944
I5
sS'is'
p5945
I6
sS'in'
p5946
I47
sS'when'
p5947
I1
sS'for'
p5948
I13
sS'about'
p5949
I5
sS'of'
p5950
I49
sS'or'
p5951
I12
ssS'scene'
p5952
(dp5953
S'has'
p5954
I1
sS'one'
p5955
I1
sS'like'
p5956
I1
sS'she'
p5957
I1
sS'that'
p5958
I2
sS'he'
p5959
I1
sS'were'
p5960
I1
sS'and'
p5961
I4
sS'it'
p5962
I2
sS'as'
p5963
I5
sS'you'
p5964
I1
ssS'meat'
p5965
(dp5966
S'not'
p5967
I1
sS'to'
p5968
I7
sS'at'
p5969
I1
ssg108
(dp5970
S'personally'
p5971
I6
sS'captain'
p5972
I7
sS'consider'
p5973
I5
sS'sorry'
p5974
I7
sS'month'
p5975
I1
sS'street'
p5976
I5
sS'even'
p5977
I25
sS'new'
p5978
I11
sS'ever'
p5979
I22
sS'never'
p5980
I65
sS'met'
p5981
I8
sS'changed'
p5982
I5
sS'therefore'
p5983
I9
sS'recommend'
p5984
I5
sS'until'
p5985
I12
sS'aware'
p5986
I11
sS'glass'
p5987
I6
sS'hold'
p5988
I9
sS'must'
p5989
I37
sS'work'
p5990
I19
sS'my'
p5991
I144
sS'indicated'
p5992
I6
sS'want'
p5993
I70
sS'times'
p5994
I9
sS'turn'
p5995
I12
sS'how'
p5996
I36
sS'dreamed'
p5997
I5
sS'better'
p5998
I14
sS'them'
p5999
I55
sS'thee'
p6000
I7
sS'each'
p6001
I5
sS'went'
p6002
I48
sS'mean'
p6003
I47
sS'innocent'
p6004
I5
sS'drove'
p6005
I7
sS'tomorrow'
p6006
I5
sS'got'
p6007
I43
sS'another'
p6008
I13
sS'too'
p6009
I27
sS'hadnt'
p6010
I11
sS'mind'
p6011
I11
sS'talking'
p6012
I5
sS'seen'
p6013
I18
sS'seem'
p6014
I6
sS'shall'
p6015
I31
sS'saying'
p6016
I13
sS'enjoyed'
p6017
I5
sS'do'
p6018
I112
sS'decided'
p6019
I6
sS'best'
p6020
I6
sS'said'
p6021
I168
sS'we'
p6022
I34
sS'however'
p6023
I23
sS'suggested'
p6024
I8
sS'received'
p6025
I5
sS'ill'
p6026
I10
sS'had'
p6027
I230
sS'speak'
p6028
I13
sS'been'
p6029
I54
sS'much'
p6030
I19
sS'child'
p6031
I6
sS'worked'
p6032
I6
sS'suppose'
p6033
I34
sS'voice'
p6034
I5
sS'cant'
p6035
I48
sS'im'
p6036
I9
sS'id'
p6037
I6
sS'if'
p6038
I112
sS'youre'
p6039
I11
sS'the'
p6040
I591
sS'left'
p6041
I13
sS'yes'
p6042
I17
sS'adding'
p6043
I6
sS'easy'
p6044
I5
sS'old'
p6045
I5
sS'born'
p6046
I6
sS'dollars'
p6047
I5
sS'was'
p6048
I326
sS'war'
p6049
I6
sS'happy'
p6050
I5
sS'head'
p6051
I6
sS'only'
p6052
I43
sS'proud'
p6053
I7
sS'promised'
p6054
I6
sS'no'
p6055
I75
sS'felt'
p6056
I59
sS'longer'
p6057
I6
sS'time'
p6058
I44
sS'certainly'
p6059
I7
sS'answered'
p6060
I10
sS'finally'
p6061
I5
sS'did'
p6062
I69
sS'die'
p6063
I9
sS'recall'
p6064
I6
sS'suspect'
p6065
I6
sS'usually'
p6066
I9
sS'live'
p6067
I13
sS'can'
p6068
I88
sS'figure'
p6069
I5
sS'heard'
p6070
I33
sS'write'
p6071
I21
sS'may'
p6072
I22
sS'such'
p6073
I6
sS'remember'
p6074
I32
sS'whenever'
p6075
I6
sS'maybe'
p6076
I16
sS'cannot'
p6077
I21
sS'so'
p6078
I82
sS'course'
p6079
I19
sS'still'
p6080
I24
sS'lonely'
p6081
I6
sS'half'
p6082
I6
sS'not'
p6083
I146
sS'now'
p6084
I56
sS'nor'
p6085
I5
sS'wont'
p6086
I14
sS'after'
p6087
I25
sS'state'
p6088
I7
sS'quite'
p6089
I5
sS'care'
p6090
I12
sS'thing'
p6091
I17
sS'place'
p6092
I5
sS'think'
p6093
I138
sS'first'
p6094
I34
sS'submit'
p6095
I5
sS'appreciate'
p6096
I5
sS'say'
p6097
I62
sS'saw'
p6098
I69
sS'any'
p6099
I18
sS'wonder'
p6100
I9
sS'sure'
p6101
I30
sS'knew'
p6102
I60
sS'later'
p6103
I11
sS'show'
p6104
I9
sS'aint'
p6105
I7
sS'get'
p6106
I51
sS'where'
p6107
I19
sS'college'
p6108
I10
sS'notice'
p6109
I8
sS'many'
p6110
I13
sS'case'
p6111
I7
sS'myself'
p6112
I29
sS'these'
p6113
I16
sS'ive'
p6114
I9
sS'week'
p6115
I7
sS'being'
p6116
I9
sS'when'
p6117
I125
sS'thinking'
p6118
I7
sS'seems'
p6119
I1
sS'calculated'
p6120
I5
sS'oh'
p6121
I14
sS'stand'
p6122
I5
sS'or'
p6123
I22
sS'tractor'
p6124
I5
sS'start'
p6125
I5
sS'low'
p6126
I5
sS'agree'
p6127
I6
sS'strongly'
p6128
I5
sS'gone'
p6129
I5
sS'certain'
p6130
I7
sS'as'
p6131
I141
sS'watched'
p6132
I6
sS'again'
p6133
I13
sS'wife'
p6134
I10
sS'all'
p6135
I53
sS'forget'
p6136
I6
sS'alma'
p6137
I5
sS'pass'
p6138
I7
sS'what'
p6139
I121
sS'brief'
p6140
I5
sS'learned'
p6141
I12
sS'door'
p6142
I7
sS'known'
p6143
I8
sS'hour'
p6144
I6
sS'sense'
p6145
I7
sS'rather'
p6146
I8
sS'stayed'
p6147
I5
sS'shouldnt'
p6148
I5
sS'tried'
p6149
I12
sS'replied'
p6150
I11
sS'soon'
p6151
I7
sS'held'
p6152
I5
sS'through'
p6153
I10
sS'hell'
p6154
I8
sS'pray'
p6155
I6
sS'might'
p6156
I28
sS'instructions'
p6157
I5
sS'always'
p6158
I22
sS'stopped'
p6159
I10
sS'really'
p6160
I13
sS'try'
p6161
I17
sS'wondered'
p6162
I10
sS'since'
p6163
I18
sS'found'
p6164
I31
sS'reason'
p6165
I8
sS'imagine'
p6166
I9
sS'put'
p6167
I23
sS'dont'
p6168
I157
sS'feel'
p6169
I32
sS'done'
p6170
I13
sS'guess'
p6171
I29
sS'paint'
p6172
I5
sS'interviewed'
p6173
I5
sS'believe'
p6174
I43
sS'convinced'
p6175
I6
sS'kind'
p6176
I5
sS'john'
p6177
I7
sS'wasnt'
p6178
I17
sS'also'
p6179
I17
sS'added'
p6180
I8
sS'most'
p6181
I15
sS'sometimes'
p6182
I10
sS'pozzatti'
p6183
I5
sS'find'
p6184
I18
sS'him'
p6185
I125
sS'wrote'
p6186
I23
sS'see'
p6187
I75
sS'recently'
p6188
I8
sS'last'
p6189
I14
sS'became'
p6190
I11
sS'liked'
p6191
I9
sS'point'
p6192
I8
sS'dug'
p6193
I6
sS'whom'
p6194
I14
sS'lived'
p6195
I6
sS'while'
p6196
I22
sS'theres'
p6197
I7
sS'read'
p6198
I9
sS'moment'
p6199
I6
sS'arrived'
p6200
I7
sS'recent'
p6201
I5
sS'older'
p6202
I7
sS'spent'
p6203
I6
sS'hated'
p6204
I12
sS'notte'
p6205
I5
sS'often'
p6206
I19
sS'though'
p6207
I12
sS'be'
p6208
I72
sS'remembered'
p6209
I11
sS'into'
p6210
I22
sS'question'
p6211
I8
sS'us'
p6212
I8
sS'ago'
p6213
I7
sS'walked'
p6214
I10
sS'once'
p6215
I32
sS'wished'
p6216
I5
sS'havent'
p6217
I18
sS'picked'
p6218
I6
sS'growing'
p6219
I5
sS'let'
p6220
I6
sS'great'
p6221
I7
sS'admired'
p6222
I5
sS'doubt'
p6223
I11
sS'sort'
p6224
I8
sS'started'
p6225
I7
sS'crossed'
p6226
I7
sS'didnt'
p6227
I66
sS'realized'
p6228
I8
sS'mentioned'
p6229
I6
sS'mention'
p6230
I5
sS'fled'
p6231
I6
sS'confess'
p6232
I5
sS'could'
p6233
I93
sS'keep'
p6234
I15
sS'visited'
p6235
I5
sS'have'
p6236
I275
sS'need'
p6237
I8
sS'afraid'
p6238
I8
sS'able'
p6239
I6
sS'why'
p6240
I38
sS'fact'
p6241
I5
sS'fear'
p6242
I10
sS'should'
p6243
I43
sS'hope'
p6244
I19
sS'closed'
p6245
I5
sS'neither'
p6246
I5
sS'figured'
p6247
I5
sS'assure'
p6248
I10
sS'drank'
p6249
I6
sS'killed'
p6250
I6
sS'am'
p6251
I179
sS'will'
p6252
I49
sS'almost'
p6253
I8
sS'began'
p6254
I5
sS'drink'
p6255
I6
sS'off'
p6256
I16
sS'well'
p6257
I42
sS'thought'
p6258
I76
sS'book'
p6259
I6
sS'know'
p6260
I171
sS'like'
p6261
I83
sS'although'
p6262
I11
sS'swear'
p6263
I6
sS'couldnt'
p6264
I23
sS'noticed'
p6265
I5
sS'but'
p6266
I163
sS'whether'
p6267
I5
sS'wish'
p6268
I37
sS'other'
p6269
I11
sS'understand'
p6270
I18
ssS'country'
p6271
(dp6272
S'all'
p6273
I9
sS'to'
p6274
I29
sS'would'
p6275
I5
sS'more'
p6276
I6
sS'this'
p6277
I47
sS'my'
p6278
I5
sg5
I28
sS'over'
p6279
I9
sS'own'
p6280
I7
sS'they'
p6281
I5
sS'our'
p6282
I11
sS'that'
p6283
I14
sS'than'
p6284
I5
sS'have'
p6285
I5
sS'the'
p6286
I144
sS'only'
p6287
I5
sS'his'
p6288
I11
sS'across'
p6289
I6
sS'is'
p6290
I13
sS'in'
p6291
I80
sS'not'
p6292
I6
sS'home'
p6293
I5
sS'for'
p6294
I14
sS'by'
p6295
I5
sS'on'
p6296
I8
sS'of'
p6297
I57
sS'into'
p6298
I8
sS'your'
p6299
I5
sS'was'
p6300
I8
sS'but'
p6301
I5
sS'with'
p6302
I10
sS'he'
p6303
I7
sS'as'
p6304
I5
ssS'later'
p6305
(dp6306
S'to'
p6307
I33
sS'would'
p6308
I7
sS'hour'
p6309
I6
sg5
I53
sS'years'
p6310
I29
sS'they'
p6311
I5
sS'out'
p6312
I7
sS'little'
p6313
I5
sS'days'
p6314
I7
sS'that'
p6315
I17
sS'than'
p6316
I6
sS'and'
p6317
I40
sS'any'
p6318
I5
sS'his'
p6319
I17
sS'she'
p6320
I10
sS'we'
p6321
I8
sS'many'
p6322
I6
sS'three'
p6323
I5
sS'will'
p6324
I6
sS'is'
p6325
I3
sS'it'
p6326
I13
sS'week'
p6327
I5
sg108
I12
sS'five'
p6328
I6
sS'some'
p6329
I6
sS'be'
p6330
I16
sS'by'
p6331
I10
sS'on'
p6332
I20
sS'months'
p6333
I5
sS'few'
p6334
I7
sS'was'
p6335
I21
sS'but'
p6336
I10
sS'with'
p6337
I8
sS'he'
p6338
I21
sS'minutes'
p6339
I11
sS'time'
p6340
I6
ssS'your'
p6341
(dp6342
S'all'
p6343
I15
sS'father'
p6344
I8
sS'to'
p6345
I129
sS'program'
p6346
I6
sS'include'
p6347
I5
sS'got'
p6348
I5
sS'leg'
p6349
I7
sS'let'
p6350
I6
sS'family'
p6351
I9
sS'use'
p6352
I6
sS'from'
p6353
I6
sS'would'
p6354
I9
sS'son'
p6355
I5
sS'on'
p6356
I34
sS'company'
p6357
I11
sS'particular'
p6358
I7
sS'must'
p6359
I5
sS'me'
p6360
I12
sS'this'
p6361
I10
sS'car'
p6362
I5
sS'can'
p6363
I22
sS'heart'
p6364
I8
sS'give'
p6365
I6
sS'want'
p6366
I8
sg5
I36
sS'help'
p6367
I5
sS'over'
p6368
I7
sS'through'
p6369
I8
sS'before'
p6370
I9
sS'how'
p6371
I10
sS'escutcheon'
p6372
I5
sS'then'
p6373
I6
sS'return'
p6374
I12
sS'wont'
p6375
I5
sS'name'
p6376
I8
sS'house'
p6377
I17
sS'out'
p6378
I9
sS'put'
p6379
I6
sS'could'
p6380
I7
sS'keep'
p6381
I7
sS'dont'
p6382
I11
sS'district'
p6383
I5
sS'that'
p6384
I34
sS'were'
p6385
I8
sS'and'
p6386
I107
sS'have'
p6387
I26
sS'need'
p6388
I5
sS'take'
p6389
I12
sS'which'
p6390
I8
sS'find'
p6391
I6
sS'employee'
p6392
I7
sS'do'
p6393
I10
sS'get'
p6394
I16
sS'him'
p6395
I5
sS'paper'
p6396
I5
sS'she'
p6397
I6
sS'see'
p6398
I13
sS'are'
p6399
I17
sS'close'
p6400
I5
sS'said'
p6401
I11
sS'youll'
p6402
I9
sS'men'
p6403
I6
sS'blot'
p6404
I5
sS'come'
p6405
I7
sS'last'
p6406
I6
sS'country'
p6407
I5
sS'vacation'
p6408
I9
sS'much'
p6409
I8
sS'life'
p6410
I11
sS'child'
p6411
I6
sS'will'
p6412
I30
sS'is'
p6413
I50
sS'it'
p6414
I19
sS'in'
p6415
I84
sS'pay'
p6416
I6
sS'make'
p6417
I11
sS'well'
p6418
I5
sS'mother'
p6419
I7
sS'the'
p6420
I59
sS'had'
p6421
I7
sS'has'
p6422
I12
sS'like'
p6423
I6
sS'because'
p6424
I7
sS'people'
p6425
I6
sS'back'
p6426
I7
sS'home'
p6427
I7
sS'for'
p6428
I57
sS'does'
p6429
I7
sS'marketing'
p6430
I5
sS'face'
p6431
I5
sS'of'
p6432
I106
sS'youve'
p6433
I6
sS'or'
p6434
I21
sS'own'
p6435
I26
sS'into'
p6436
I8
sS'your'
p6437
I22
sS'support'
p6438
I5
sS'way'
p6439
I9
sS'was'
p6440
I11
sS'head'
p6441
I5
sS'with'
p6442
I26
sS'up'
p6443
I11
sS'as'
p6444
I12
sS'at'
p6445
I15
sS'you'
p6446
I89
sS'pool'
p6447
I12
sS'wife'
p6448
I5
sS'time'
p6449
I13
ssS'quiet'
p6450
(dp6451
S'to'
p6452
I4
sS'not'
p6453
I2
sS'are'
p6454
I1
sS'be'
p6455
I2
sS'this'
p6456
I1
sS'were'
p6457
I1
sS'is'
p6458
I6
sS'it'
p6459
I3
sS'as'
p6460
I1
ssS'fewer'
p6461
(dp6462
S'less'
p6463
I2
sS'had'
p6464
I1
sS'to'
p6465
I4
sS'are'
p6466
I3
sS'even'
p6467
I1
sS'for'
p6468
I1
sS'be'
p6469
I2
sS'of'
p6470
I2
sS'or'
p6471
I2
sS'been'
p6472
I1
sS'more'
p6473
I2
sS'that'
p6474
I1
sS'but'
p6475
I1
sS'with'
p6476
I1
sS'than'
p6477
I5
sS'were'
p6478
I1
sS'and'
p6479
I8
sS'is'
p6480
I1
sS'it'
p6481
I2
sS'in'
p6482
I4
sS'no'
p6483
I1
sg5
I1
sS'the'
p6484
I3
ssS'theyre'
p6485
(dp6486
S'they'
p6487
I2
sS'attention'
p6488
I1
sS'their'
p6489
I1
sS'make'
p6490
I2
ssS'patients'
p6491
(dp6492
S'of'
p6493
I9
sS'from'
p6494
I5
ssS'whether'
p6495
(dp6496
S'to'
p6497
I50
sS'decide'
p6498
I6
sS'this'
p6499
I6
sg5
I22
sS'or'
p6500
I23
sS'they'
p6501
I16
sS'not'
p6502
I21
sS'determine'
p6503
I7
sS'wondered'
p6504
I6
sS'could'
p6505
I6
sS'were'
p6506
I5
sS'are'
p6507
I5
sS'have'
p6508
I6
sS'any'
p6509
I5
sS'wonder'
p6510
I5
sS'we'
p6511
I8
sS'will'
p6512
I5
sS'is'
p6513
I23
sS'it'
p6514
I19
sg108
I8
sS'know'
p6515
I10
sS'for'
p6516
I7
sS'be'
p6517
I16
sS'on'
p6518
I10
sS'would'
p6519
I7
sS'there'
p6520
I7
sS'question'
p6521
I17
sS'was'
p6522
I19
sS'he'
p6523
I24
sS'an'
p6524
I8
sS'you'
p6525
I9
ssS'amount'
p6526
(dp6527
S'money'
p6528
I7
sS'only'
p6529
I1
sS'large'
p6530
I4
sS'reduce'
p6531
I1
sS'for'
p6532
I3
sS'determine'
p6533
I5
sS'people'
p6534
I1
sS'with'
p6535
I1
sS'will'
p6536
I5
sS'as'
p6537
I2
sg5
I18
ssS'principle'
p6538
(dp6539
S'therefore'
p6540
I5
sS'which'
p6541
I6
sS'plan'
p6542
I6
ssS'plain'
p6543
(dp6544
S'of'
p6545
I3
sS'the'
p6546
I13
ssS'were'
p6547
(dp6548
S'four'
p6549
I9
sS'whose'
p6550
I18
sS'under'
p6551
I9
sS'tired'
p6552
I5
sS'japanese'
p6553
I5
sS'selected'
p6554
I9
sS'above'
p6555
I5
sS'new'
p6556
I22
sS'told'
p6557
I8
sS'men'
p6558
I34
sS'until'
p6559
I5
sS'fractions'
p6560
I5
sS'work'
p6561
I5
sS'my'
p6562
I13
sS'indicated'
p6563
I5
sS'very'
p6564
I17
sS'over'
p6565
I20
sS'then'
p6566
I27
sS'they'
p6567
I316
sS'each'
p6568
I10
sS'free'
p6569
I6
sS'already'
p6570
I10
sS'girls'
p6571
I9
sS'too'
p6572
I20
sS'legs'
p6573
I5
sS'talking'
p6574
I10
sS'forced'
p6575
I6
sS'1960'
p6576
I7
sS'subjects'
p6577
I7
sS'though'
p6578
I22
sS'saying'
p6579
I5
sS'cattle'
p6580
I9
sS'away'
p6581
I7
sS'drawn'
p6582
I6
sS'we'
p6583
I91
sS'never'
p6584
I9
sS'however'
p6585
I7
sS'received'
p6586
I9
sS'against'
p6587
I7
sS'three'
p6588
I20
sS'much'
p6589
I11
sS'applied'
p6590
I8
sS'is'
p6591
I7
sS'if'
p6592
I97
sS'things'
p6593
I14
sS'several'
p6594
I11
sS'kept'
p6595
I6
sS'yet'
p6596
I11
sS'had'
p6597
I9
sS'brought'
p6598
I5
sS'right'
p6599
I6
sS'people'
p6600
I29
sS'been'
p6601
I2
sS'for'
p6602
I97
sS'efforts'
p6603
I5
sS'way'
p6604
I6
sS'war'
p6605
I7
sS'true'
p6606
I5
sS'inside'
p6607
I6
sS'aware'
p6608
I5
sS'together'
p6609
I8
sS'teeth'
p6610
I5
sS'french'
p6611
I5
sS'alone'
p6612
I5
sS'working'
p6613
I7
sS'cases'
p6614
I5
sS'making'
p6615
I5
sg498
I6
sS'may'
p6616
I1
sS'such'
p6617
I13
sS'so'
p6618
I29
sS'years'
p6619
I17
sS'course'
p6620
I5
sS'experiments'
p6621
I5
sS'still'
p6622
I28
sS'not'
p6623
I93
sS'now'
p6624
I18
sS'year'
p6625
I5
sS'cars'
p6626
I7
sS'first'
p6627
I11
sS'coming'
p6628
I5
sg1784
I8
sS'tell'
p6629
I1
sS'white'
p6630
I7
sS'eyes'
p6631
I23
sS'mostly'
p6632
I8
sS'that'
p6633
I154
sS'obtained'
p6634
I11
sS'than'
p6635
I23
sS'sera'
p6636
I5
sS'and'
p6637
I442
sS'normal'
p6638
I8
sS'considered'
p6639
I5
sS'later'
p6640
I10
sg554
I5
sS'only'
p6641
I37
sS'get'
p6642
I1
sS'where'
p6643
I26
sS'behind'
p6644
I7
sS'many'
p6645
I24
sS'among'
p6646
I5
sS'those'
p6647
I25
sS'these'
p6648
I75
sS'different'
p6649
I9
sS'same'
p6650
I11
sS'persons'
p6651
I6
sS'being'
p6652
I16
sS'samples'
p6653
I5
sS'around'
p6654
I8
sS'or'
p6655
I38
sS'her'
p6656
I38
sS'there'
p6657
I183
sS'enough'
p6658
I10
sS'trying'
p6659
I5
sS'with'
p6660
I73
sS'dirty'
p6661
I5
sS'af'
p6662
I7
sS'again'
p6663
I5
sS'time'
p6664
I16
sS'all'
p6665
I71
sS'children'
p6666
I9
sS'far'
p6667
I8
sS'joined'
p6668
I5
sS'large'
p6669
I9
sS'small'
p6670
I8
sS'what'
p6671
I29
sS'stood'
p6672
I1
sS'full'
p6673
I7
sS'published'
p6674
I6
sS'point'
p6675
I1
sS'thought'
p6676
I9
sS'two'
p6677
I47
sS'taken'
p6678
I8
sS'more'
p6679
I35
sS'horses'
p6680
I5
sS'rather'
p6681
I6
sS'conducted'
p6682
I5
sS'spectra'
p6683
I5
sS'playing'
p6684
I6
sS'soon'
p6685
I6
sS'held'
p6686
I11
sS'good'
p6687
I12
sS'always'
p6688
I15
sS'members'
p6689
I9
sS'put'
p6690
I5
sS'number'
p6691
I6
sS'least'
p6692
I6
sS'determined'
p6693
I5
sS'treated'
p6694
I7
sS'built'
p6695
I5
sS'officers'
p6696
I9
sS'also'
p6697
I23
sS'added'
p6698
I6
sS'clear'
p6699
I5
sS'distributed'
p6700
I6
sS'his'
p6701
I88
sS'him'
p6702
I21
sS'set'
p6703
I5
sS'are'
p6704
I4
sS'both'
p6705
I34
sS'last'
p6706
I11
sS'dances'
p6707
I5
sS'whom'
p6708
I7
sS'collected'
p6709
I5
sS'empty'
p6710
I6
sS'elections'
p6711
I5
sS'while'
p6712
I18
sS'seen'
p6713
I5
sS'ready'
p6714
I6
sS'used'
p6715
I23
sS'moving'
p6716
I6
sS'early'
p6717
I7
sS'often'
p6718
I11
sS'some'
p6719
I31
sS'separated'
p6720
I6
sS'by'
p6721
I112
sS'within'
p6722
I6
sS'nothing'
p6723
I7
sS'sections'
p6724
I10
sS'similar'
p6725
I6
sS'called'
p6726
I6
sS'prepared'
p6727
I12
sS'ago'
p6728
I7
sS'having'
p6729
I5
sS'go'
p6730
I1
sS'young'
p6731
I9
sS'noted'
p6732
I5
sS'others'
p6733
I8
sS'great'
p6734
I10
sS'involved'
p6735
I6
sS'names'
p6736
I5
sS'few'
p6737
I18
sS'women'
p6738
I5
sS'this'
p6739
I30
sS'when'
p6740
I46
sS'six'
p6741
I6
sS'covered'
p6742
I5
sS'hands'
p6743
I8
sS'doing'
p6744
I12
sS'our'
p6745
I15
sS'out'
p6746
I23
sS'between'
p6747
I6
sS'their'
p6748
I47
sS'lot'
p6749
I5
sS'able'
p6750
I5
sS'which'
p6751
I48
sS'who'
p6752
I48
sS'fact'
p6753
I6
sS'soldiers'
p6754
I5
sS'principal'
p6755
I5
sS'married'
p6756
I6
sS'whether'
p6757
I8
sS'written'
p6758
I5
sS'present'
p6759
I6
sS'as'
p6760
I121
sS'perhaps'
p6761
I5
sS'upon'
p6762
I6
sS'off'
p6763
I13
sS'well'
p6764
I11
sS'less'
p6765
I8
sS'other'
p6766
I36
sS'tests'
p6767
I5
sS'government'
p6768
I6
sS'were'
p6769
I2
sS'like'
p6770
I15
sS'lost'
p6771
I7
sS'because'
p6772
I24
sS'although'
p6773
I13
sS'about'
p6774
I17
sS'letters'
p6775
I7
sS'made'
p6776
I35
sS'cells'
p6777
I10
sS'placed'
p6778
I5
sS'friends'
p6779
I11
ssS'meet'
p6780
(dp6781
S'to'
p6782
I48
sS'not'
p6783
I5
sS'we'
p6784
I6
sS'would'
p6785
I6
sS'lines'
p6786
I5
sS'at'
p6787
I6
ssS'piece'
p6788
(dp6789
S'he'
p6790
I1
sS'on'
p6791
I5
sS'little'
p6792
I5
ssS'whole'
p6793
(dp6794
S'must'
p6795
I5
sS'this'
p6796
I8
sS'out'
p6797
I5
sS'thing'
p6798
I6
sS'that'
p6799
I19
sS'and'
p6800
I40
sS'have'
p6801
I5
sS'his'
p6802
I9
sS'the'
p6803
I174
sS'world'
p6804
I11
sS'people'
p6805
I5
sS'on'
p6806
I17
sS'of'
p6807
I67
sS'or'
p6808
I7
sS'was'
p6809
I14
sS'but'
p6810
I5
sS'with'
p6811
I12
sS'as'
p6812
I27
ssS'know'
p6813
(dp6814
S'seemed'
p6815
I2
sS'must'
p6816
I9
sS'did'
p6817
I27
sS'fact'
p6818
I1
sS'never'
p6819
I11
sS'let'
p6820
I10
sS'didnt'
p6821
I31
sS'from'
p6822
I2
sS'two'
p6823
I1
sS'more'
p6824
I6
sS'mr'
p6825
I1
sS'something'
p6826
I10
sS'such'
p6827
I1
sS'not'
p6828
I59
sS'name'
p6829
I5
sS'out'
p6830
I2
sS'reason'
p6831
I1
sS'could'
p6832
I7
sS'place'
p6833
I1
sS'dont'
p6834
I56
sS'one'
p6835
I11
sS'done'
p6836
I1
sS'part'
p6837
I1
sS'than'
p6838
I2
sS'were'
p6839
I5
sS'have'
p6840
I9
sS'other'
p6841
I4
sS'nothing'
p6842
I6
sS'going'
p6843
I5
sS'hope'
p6844
I1
sS'do'
p6845
I40
sS'between'
p6846
I2
sS'been'
p6847
I2
sS'life'
p6848
I1
sS'has'
p6849
I4
sS'is'
p6850
I35
sS'experience'
p6851
I1
sS'in'
p6852
I13
sS'id'
p6853
I5
sS'different'
p6854
I1
sS'perhaps'
p6855
I1
sS'make'
p6856
I1
sS'youre'
p6857
I7
sS'had'
p6858
I7
sS'gave'
p6859
I1
sS'possible'
p6860
I1
sS'because'
p6861
I3
sS'people'
p6862
I13
sS'for'
p6863
I9
sS'be'
p6864
I5
sS'by'
p6865
I5
sS'on'
p6866
I4
sS'of'
p6867
I27
sS'or'
p6868
I3
sS'there'
p6869
I7
sS'question'
p6870
I1
sS'was'
p6871
I20
sS'but'
p6872
I19
sS'with'
p6873
I3
sS'made'
p6874
I2
sS'whether'
p6875
I11
sS'up'
p6876
I1
sS'problem'
p6877
I1
sS'at'
p6878
I3
sS'you'
p6879
I120
sS'felt'
p6880
I1
ss.