(dp0
S'JX'
p1
I5682177
sS'VL'
p2
I138973795
sS'JY'
p3
I10880910
sS'JZ'
p4
I8070227
sS'JW'
p5
I34888766
sS'JT'
p6
I44567068
sS'JU'
p7
I4054670856
sS'VM'
p8
I127476300
sS'JV'
p9
I43025818
sS'GW'
p10
I1174624262
sS'GV'
p11
I241097967
sS'GU'
p12
I5967924547
sS'GT'
p13
I5752080734
sS'GS'
p14
I5910027525
sS'GR'
p15
I12028253431
sS'GQ'
p16
I69240897
sS'GP'
p17
I1616306418
sS'JP'
p18
I158759746
sS'GZ'
p19
I105114918
sS'GY'
p20
I2323709882
sS'GX'
p21
I56198278
sS'GG'
p22
I1992235463
sS'GF'
p23
I1522326436
sS'GE'
p24
I28502237355
sS'GD'
p25
I1162739419
sS'GC'
p26
I1927221855
sS'GB'
p27
I1366578321
sS'GA'
p28
I14191497542
sS'GO'
p29
I11021593048
sS'GN'
p30
I4692319436
sS'GM'
p31
I1480461977
sS'GL'
p32
I4011563990
sS'GK'
p33
I238985937
sS'GJ'
p34
I158380167
sS'GI'
p35
I12005990636
sS'GH'
p36
I12038664661
sS'JL'
p37
I41748140
sS'JM'
p38
I75950627
sS'JN'
p39
I49314888
sS'WT'
p40
I1807415715
sS'JH'
p41
I40926707
sS'JI'
p42
I483957192
sS'WQ'
p43
I27284705
sS'JK'
p44
I95237627
sS'WZ'
p45
I101939100
sS'JB'
p46
I62340028
sS'JC'
p47
I107858822
sS'ZL'
p48
I155799204
sS'ZM'
p49
I84167126
sS'ZN'
p50
I59963870
sS'ZO'
p51
I1226090518
sS'ZH'
p52
I99349469
sS'ZI'
p53
I1424549625
sS'ZJ'
p54
I31370967
sS'ZK'
p55
I37189199
sS'ZD'
p56
I101168986
sS'ZE'
p57
I3038306939
sS'ZF'
p58
I45439062
sS'ZG'
p59
I40237172
sS'ZA'
p60
I1550549207
sS'ZB'
p61
I82447517
sS'ZC'
p62
I99863167
sS'ZX'
p63
I16061325
sS'ZY'
p64
I202018221
sS'ZZ'
p65
I406963963
sS'ZT'
p66
I75009362
sS'ZU'
p67
I296673637
sS'ZV'
p68
I25612956
sS'ZW'
p69
I54956316
sS'ZP'
p70
I60233607
sS'ZQ'
p71
I6170496
sS'ZR'
p72
I95348467
sS'ZS'
p73
I123498745
sS'ME'
p74
I50958591639
sS'MD'
p75
I874654976
sS'MG'
p76
I575888276
sS'MF'
p77
I978327583
sS'MA'
p78
I40261070734
sS'MC'
p79
I1626785459
sS'MB'
p80
I7720936043
sS'MM'
p81
I7863945051
sS'ML'
p82
I1266359764
sS'MO'
p83
I21343638917
sS'MN'
p84
I956700910
sS'MI'
p85
I19090900236
sS'MH'
p86
I665327302
sS'MK'
p87
I156392461
sS'MJ'
p88
I181720004
sS'MU'
p89
I6695170465
sS'MT'
p90
I2714425956
sS'MW'
p91
I853594935
sS'MV'
p92
I242727741
sS'MQ'
p93
I41533036
sS'MP'
p94
I14257278755
sS'MS'
p95
I8187806253
sS'MR'
p96
I980047617
sS'MY'
p97
I4121819744
sS'MX'
p98
I127278984
sS'MZ'
p99
I41663902
sS'FP'
p100
I1417227743
sS'FQ'
p101
I59735805
sS'FR'
p102
I14439772192
sS'FS'
p103
I2218585525
sS'FT'
p104
I13171357353
sS'FU'
p105
I6162102012
sS'FV'
p106
I260726492
sS'FW'
p107
I839573399
sS'FX'
p108
I94629102
sS'FY'
p109
I1724190100
sS'FZ'
p110
I36509757
sS'FA'
p111
I11428633961
sS'FB'
p112
I743537251
sS'FC'
p113
I1841861062
sS'FD'
p114
I897530021
sS'FE'
p115
I13440050156
sS'FF'
p116
I8927389303
sS'FG'
p117
I650480543
sS'FH'
p118
I949061474
sS'FI'
p119
I19753676090
sS'FJ'
p120
I207854544
sS'FK'
p121
I148461915
sS'FL'
p122
I4335648043
sS'FM'
p123
I1242973272
sS'FN'
p124
I605786093
sS'FO'
p125
I32748744509
sS'EV'
p126
I14977965012
sS'JQ'
p127
I2858953
sS'JR'
p128
I137430055
sS'SZ'
p129
I182604914
sS'SY'
p130
I4676593607
sS'SX'
p131
I243932875
sS'SS'
p132
I31081241798
sS'SR'
p133
I4378996072
sS'SQ'
p134
I750514602
sS'SP'
p135
I17010851034
sS'SW'
p136
I7312275570
sS'SV'
p137
I1317445135
sS'SU'
p138
I18318104818
sS'ST'
p139
I78728300226
sS'SK'
p140
I3854517035
sS'SJ'
p141
I678346544
sS'SI'
p142
I41483080358
sS'SH'
p143
I21322806441
sS'SO'
p144
I31467005438
sS'SN'
p145
I4581713888
sS'SM'
p146
I7051919359
sS'SL'
p147
I5977618166
sS'SC'
p148
I16886526539
sS'SB'
p149
I5554765729
sS'SA'
p150
I31138171773
sS'SG'
p151
I2246645063
sS'SF'
p152
I6792861643
sS'SE'
p153
I58165976437
sS'SD'
p154
I4313766677
sS'YI'
p155
I4088737647
sS'YH'
p156
I1678109748
sS'YK'
p157
I377466618
sS'YJ'
p158
I546404776
sS'YM'
p159
I3629941896
sS'YL'
p160
I2798711484
sS'YO'
p161
I20264440566
sS'YN'
p162
I2367224599
sS'YA'
p163
I6723589408
sS'YC'
p164
I4065809966
sS'YB'
p165
I2791607728
sS'YE'
p166
I7000720946
sS'YD'
p167
I2357064378
sS'YG'
p168
I1197449390
sS'YF'
p169
I2308211635
sS'YY'
p170
I396710835
sS'YX'
p171
I74171966
sS'YZ'
p172
I202799496
sS'YQ'
p173
I136052248
sS'YP'
p174
I4770576225
sS'YS'
p175
I10570642040
sS'YR'
p176
I3213028237
sS'YU'
p177
I849379055
sS'YT'
p178
I6272652335
sS'YW'
p179
I2650158989
sS'YV'
p180
I566509018
sS'LF'
p181
I3565589819
sS'LG'
p182
I1387253469
sS'LD'
p183
I12631807015
sS'LE'
p184
I52533619401
sS'LB'
p185
I3160411900
sS'LC'
p186
I4046692044
sS'LA'
p187
I35279652135
sS'LN'
p188
I1384111140
sS'LO'
p189
I28357992178
sS'LL'
p190
I36610231690
sS'LM'
p191
I2961674921
sS'LJ'
p192
I284682384
sS'LK'
p193
I1518763585
sS'LH'
p194
I1181528402
sS'LI'
p195
I45239121467
sS'LV'
p196
I1803473089
sS'LW'
p197
I1550108402
sS'LT'
p198
I10910014701
sS'LU'
p199
I8610377071
sS'LR'
p200
I2690464933
sS'LS'
p201
I13556674443
sS'LP'
p202
I4956631224
sS'LQ'
p203
I111266921
sS'LZ'
p204
I115185658
sS'LX'
p205
I86895575
sS'LY'
p206
I16052501931
sS'RT'
p207
I31174956946
sS'RU'
p208
I8479995978
sS'RV'
p209
I7048825612
sS'RW'
p210
I3123939253
sS'RP'
p211
I5964174774
sS'RQ'
p212
I276576452
sS'RR'
p213
I8457557665
sS'RS'
p214
I31498209240
sS'RX'
p215
I177324040
sS'RY'
p216
I16071337298
sS'RZ'
p217
I271040922
sS'RD'
p218
I14380342944
sS'RE'
p219
I108669181717
sS'RF'
p220
I4407369994
sS'RG'
p221
I6774701154
sS'RA'
p222
I46135420707
sS'RB'
p223
I3838019263
sS'RC'
p224
I14278737404
sS'RL'
p225
I6736958349
sS'RM'
p226
I13536350081
sS'RN'
p227
I11557521313
sS'RO'
p228
I46608666502
sS'RH'
p229
I2300596181
sS'RI'
p230
I48154583840
sS'RJ'
p231
I467618387
sS'RK'
p232
I7673324341
sS'JS'
p233
I116730486
sS'IX'
p234
I1448111540
sS'VC'
p235
I267332451
sS'VH'
p236
I136916226
sS'VI'
p237
I23140348141
sS'VJ'
p238
I15424672
sS'EM'
p239
I29776626954
sS'EL'
p240
I37931534499
sS'EO'
p241
I14770877724
sS'EN'
p242
I77314896004
sS'EI'
p243
I16135583953
sS'EH'
p244
I5682274341
sS'EK'
p245
I2534125107
sS'EJ'
p246
I1155599707
sS'EE'
p247
I27451934708
sS'ED'
p248
I57514469508
sS'EG'
p249
I11512774220
sS'EF'
p250
I14743755990
sS'EA'
p251
I55939058323
sS'EC'
p252
I39836916955
sS'EB'
p253
I12666048968
sS'EY'
p254
I8418908993
sS'EX'
p255
I13356752941
sS'EZ'
p256
I572494203
sS'EU'
p257
I4861907859
sS'ET'
p258
I42812689527
sS'EW'
p259
I20003014022
sS'IV'
p260
I15535972775
sS'EQ'
p261
I3453509796
sS'EP'
p262
I19436550393
sS'ES'
p263
I97326307798
sS'ER'
p264
I119214789533
sS'VP'
p265
I160573271
sS'VQ'
p266
I8637649
sS'VR'
p267
I217059171
sS'IJ'
p268
I413267980
sS'VT'
p269
I189305399
sS'VU'
p270
I191219786
sS'VV'
p271
I69205951
sS'VW'
p272
I116491832
sS'VX'
p273
I47815439
sS'VZ'
p274
I7573361
sS'XJ'
p275
I30189609
sS'XK'
p276
I38953406
sS'XH'
p277
I319250039
sS'XI'
p278
I1830392546
sS'XN'
p279
I135354237
sS'XO'
p280
I460487734
sS'XL'
p281
I214535838
sS'XM'
p282
I500340477
sS'XB'
p283
I306237503
sS'XC'
p284
I1625728079
sS'XA'
p285
I1718498310
sS'XF'
p286
I339528185
sS'XG'
p287
I135146866
sS'XD'
p288
I209666964
sS'XE'
p289
I1553965388
sS'XZ'
p290
I23383121
sS'XX'
p291
I554737300
sS'XY'
p292
I372725127
sS'XR'
p293
I211474506
sS'XS'
p294
I408373665
sS'XP'
p295
I3378298285
sS'XQ'
p296
I20714339
sS'XV'
p297
I153643160
sS'XW'
p298
I154494871
sS'XT'
p299
I3628673601
sS'XU'
p300
I407474891
sS'KC'
p301
I719563902
sS'KB'
p302
I920890175
sS'KA'
p303
I3410386694
sS'KG'
p304
I471310827
sS'KF'
p305
I858798087
sS'KE'
p306
I14119208748
sS'KD'
p307
I444574347
sS'KK'
p308
I212180979
sS'KJ'
p309
I197923765
sS'KI'
p310
I8615590792
sS'KH'
p311
I1062473733
sS'KO'
p312
I2259439291
sS'KN'
p313
I2428470642
sS'KM'
p314
I718788756
sS'KL'
p315
I1241504553
sS'KS'
p316
I6218068120
sS'KR'
p317
I740459498
sS'KQ'
p318
I37052361
sS'KP'
p319
I704408597
sS'KW'
p320
I604099193
sS'KV'
p321
I137367043
sS'KU'
p322
I678961264
sS'KT'
p323
I2071966322
sS'KZ'
p324
I34039551
sS'KY'
p325
I961304416
sS'KX'
p326
I35373414
sS'DN'
p327
I2569370944
sS'DO'
p328
I17706639517
sS'DL'
p329
I3577701820
sS'DM'
p330
I4111096663
sS'DJ'
p331
I819560690
sS'DK'
p332
I500625217
sS'DH'
p333
I2800725402
sS'DI'
p334
I33302437545
sS'DF'
p335
I3715422721
sS'DG'
p336
I2821158761
sS'DD'
p337
I6513992572
sS'DE'
p338
I46344292825
sS'DB'
p339
I6154952809
sS'DC'
p340
I4458726250
sS'DA'
p341
I23279747379
sS'DZ'
p342
I88576018
sS'DX'
p343
I128002023
sS'DY'
p344
I3212165655
sS'DV'
p345
I3577037604
sS'DW'
p346
I3860562254
sS'DT'
p347
I10976756096
sS'DU'
p348
I10242237496
sS'DR'
p349
I7792756412
sS'DS'
p350
I14113090545
sS'DP'
p351
I3534926059
sS'DQ'
p352
I226027310
sS'QQ'
p353
I16554628
sS'QP'
p354
I35805858
sS'QS'
p355
I135719258
sS'QR'
p356
I82307906
sS'QU'
p357
I8281405449
sS'QT'
p358
I92435217
sS'QW'
p359
I38662144
sS'QV'
p360
I15697108
sS'QY'
p361
I6901470
sS'QX'
p362
I7684606
sS'QZ'
p363
I4293975
sS'QA'
p364
I117748793
sS'QC'
p365
I52341229
sS'QB'
p366
I25058796
sS'QE'
p367
I25297860
sS'QD'
p368
I28407229
sS'QG'
p369
I15295164
sS'QF'
p370
I42521152
sS'QI'
p371
I99281600
sS'QH'
p372
I29313112
sS'QK'
p373
I8123073
sS'QJ'
p374
I6944827
sS'QM'
p375
I34592319
sS'QL'
p376
I207584203
sS'QO'
p377
I25047812
sS'QN'
p378
I28847084
sS'WG'
p379
I230184684
sS'WF'
p380
I511762732
sS'WE'
p381
I18727322433
sS'WD'
p382
I598852489
sS'WC'
p383
I739335953
sS'WB'
p384
I541505398
sS'WA'
p385
I16616645822
sS'WO'
p386
I11770868120
sS'WN'
p387
I4496647198
sS'WM'
p388
I715128430
sS'WL'
p389
I994356456
sS'WK'
p390
I162689468
sS'WJ'
p391
I266620064
sS'WI'
p392
I21486195066
sS'WH'
p393
I12042164275
sS'WW'
p394
I1962296312
sS'WV'
p395
I149685312
sS'WU'
p396
I285828898
sS'JO'
p397
I4529294446
sS'WS'
p398
I6152300106
sS'WR'
p399
I2042709489
sS'JJ'
p400
I36263263
sS'WP'
p401
I812895043
sS'JD'
p402
I72160777
sS'JE'
p403
I3747477349
sS'JF'
p404
I37277622
sS'JG'
p405
I28530574
sS'JA'
p406
I4192981909
sS'WY'
p407
I893249955
sS'WX'
p408
I114261838
sS'PR'
p409
I31268978905
sS'PS'
p410
I4936994208
sS'PP'
p411
I9875069347
sS'PQ'
p412
I102094564
sS'PV'
p413
I186219865
sS'PW'
p414
I465388310
sS'PT'
p415
I6901392028
sS'PU'
p416
I7257174438
sS'PZ'
p417
I51530668
sS'PX'
p418
I87171181
sS'PY'
p419
I2064349214
sS'PB'
p420
I553313511
sS'PC'
p421
I1449681886
sS'PA'
p422
I24898597250
sS'PF'
p423
I750300132
sS'PG'
p424
I575977478
sS'PD'
p425
I1487379715
sS'PE'
p426
I25126480018
sS'PJ'
p427
I75706008
sS'PK'
p428
I167240984
sS'PH'
p429
I7561343147
sS'PI'
p430
I9629601171
sS'PN'
p431
I411327563
sS'PO'
p432
I23703275501
sS'PL'
p433
I17001616925
sS'PM'
p434
I3267674878
sS'CK'
p435
I13780629739
sS'CJ'
p436
I97724802
sS'CI'
p437
I15114311349
sS'CH'
p438
I34170408619
sS'CO'
p439
I52490369344
sS'CN'
p440
I661266058
sS'CM'
p441
I789252854
sS'CL'
p442
I11632840915
sS'CC'
p443
I5922990413
sS'CB'
p444
I460498864
sS'CA'
p445
I35964886206
sS'CG'
p446
I380593440
sS'CF'
p447
I503867826
sS'CE'
p448
I37978263270
sS'CD'
p449
I1555353527
sS'CZ'
p450
I141710058
sS'CY'
p451
I4025081908
sS'CX'
p452
I70060659
sS'CS'
p453
I4078415715
sS'CR'
p454
I9927779823
sS'CQ'
p455
I246622061
sS'CP'
p456
I943130273
sS'CW'
p457
I314285016
sS'CV'
p458
I364293955
sS'CU'
p459
I9565348552
sS'CT'
p460
I28898718663
sS'IY'
p461
I121243061
sS'VA'
p462
I10061548421
sS'VB'
p463
I159300324
sS'IZ'
p464
I3432225830
sS'VD'
p465
I948786360
sS'VE'
p466
I42386634729
sS'VF'
p467
I70032606
sS'VG'
p468
I159448024
sS'IQ'
p469
I714359764
sS'IP'
p470
I8282654910
sS'IS'
p471
I56531345460
sS'IR'
p472
I17041448765
sS'IU'
p473
I1065701405
sS'IT'
p474
I60786494374
sS'IW'
p475
I937945354
sS'VO'
p476
I3540351272
sS'II'
p477
I1153899993
sS'IH'
p478
I828926953
sS'IK'
p479
I3004540659
sS'VS'
p480
I517563727
sS'IM'
p481
I15472128922
sS'IL'
p482
I30603240902
sS'IO'
p483
I45866820943
sS'IN'
p484
I134812613554
sS'IA'
p485
I19042814662
sS'VY'
p486
I224764337
sS'IC'
p487
I45663138305
sS'IB'
p488
I5903154131
sS'IE'
p489
I24933647247
sS'ID'
p490
I17905542743
sS'IG'
p491
I16254923119
sS'IF'
p492
I10654256107
sS'BD'
p493
I467149365
sS'BE'
p494
I27212687351
sS'BF'
p495
I218548224
sS'BG'
p496
I168267558
sS'BA'
p497
I13622702607
sS'BB'
p498
I1170784338
sS'BC'
p499
I851766051
sS'BL'
p500
I14155655885
sS'BM'
p501
I1060633477
sS'BN'
p502
I353904700
sS'BO'
p503
I14280375980
sS'BH'
p504
I320626864
sS'BI'
p505
I8714189475
sS'BJ'
p506
I1355781515
sS'BK'
p507
I70233089
sS'BT'
p508
I810975838
sS'BU'
p509
I11550713430
sS'BV'
p510
I152346227
sS'BW'
p511
I197562503
sS'BP'
p512
I443158074
sS'BQ'
p513
I27287934
sS'BR'
p514
I7470955906
sS'BS'
p515
I4406092091
sS'BX'
p516
I64498535
sS'BY'
p517
I9859174066
sS'BZ'
p518
I57979840
sS'OO'
p519
I17541371381
sS'ON'
p520
I100461773921
sS'OM'
p521
I38270823174
sS'OL'
p522
I23553044761
sS'OK'
p523
I6337630431
sS'OJ'
p524
I1211299844
sS'OI'
p525
I6197247704
sS'OH'
p526
I2835788339
sS'OG'
p527
I9537105190
sS'OF'
p528
I44948393239
sS'OE'
p529
I3398500076
sS'OD'
p530
I14558819018
sS'OC'
p531
I13671886937
sS'OB'
p532
I8520934320
sS'OA'
p533
I8232231588
sS'OZ'
p534
I450998032
sS'OY'
p535
I3224756847
sS'OX'
p536
I1680672450
sS'OW'
p537
I19972624694
sS'OV'
p538
I11763317241
sS'OU'
p539
I52913816186
sS'OT'
p540
I32419391981
sS'OS'
p541
I19821367131
sS'OR'
p542
I85998433585
sS'OQ'
p543
I137285683
sS'OP'
p544
I19077697278
sS'HZ'
p545
I150561714
sS'HX'
p546
I49621720
sS'HY'
p547
I2609376360
sS'HR'
p548
I4812087922
sS'HS'
p549
I2518213365
sS'HP'
p550
I1493976373
sS'HQ'
p551
I217009782
sS'HV'
p552
I268620105
sS'HW'
p553
I1106455831
sS'HT'
p554
I10529516272
sS'HU'
p555
I3823520600
sS'HJ'
p556
I189902193
sS'HK'
p557
I202305693
sS'HH'
p558
I780236030
sS'HI'
p559
I34041908708
sS'HN'
p560
I2670439822
sS'HO'
p561
I33037260281
sS'HL'
p562
I1416667280
sS'HM'
p563
I1825937267
sS'HB'
p564
I1037322379
sS'HC'
p565
I1611390370
sS'HA'
p566
I41206270659
sS'HF'
p567
I943913834
sS'HG'
p568
I437064808
sS'HD'
p569
I1040932622
sS'HE'
p570
I106498528786
sS'UY'
p571
I1633379480
sS'UX'
p572
I605592840
sS'UZ'
p573
I294900207
sS'UU'
p574
I170247936
sS'UT'
p575
I22499209523
sS'UW'
p576
I731912653
sS'UV'
p577
I409837804
sS'UQ'
p578
I59614067
sS'UP'
p579
I9388602522
sS'US'
p580
I30677125454
sS'UR'
p581
I35957660877
sS'UM'
p582
I10007053570
sS'UL'
p583
I15752059735
sS'UO'
p584
I911010799
sS'UN'
p585
I22987447404
sS'UI'
p586
I6967198562
sS'UH'
p587
I524903236
sS'UK'
p588
I1372734372
sS'UJ'
p589
I145269456
sS'UE'
p590
I8457625777
sS'UD'
p591
I6346747965
sS'UG'
p592
I5736801207
sS'UF'
p593
I1416534510
sS'UA'
p594
I8227068864
sS'UC'
p595
I10702575520
sS'UB'
p596
I6765681016
sS'NH'
p597
I2792670858
sS'NI'
p598
I25359266664
sS'NJ'
p599
I1346516080
sS'NK'
p600
I5529228890
sS'NL'
p601
I6853881320
sS'NM'
p602
I4584364328
sS'NN'
p603
I7623559267
sS'NO'
p604
I30618138499
sS'NA'
p605
I31835157885
sS'NB'
p606
I3413336523
sS'NC'
p607
I24737829432
sS'ND'
p608
I68018862077
sS'NE'
p609
I48426255131
sS'NF'
p610
I8729196286
sS'NG'
p611
I54671896948
sS'NX'
p612
I234953096
sS'NY'
p613
I7149394479
sS'NZ'
p614
I459403891
sS'NP'
p615
I3592621275
sS'NQ'
p616
I331688568
sS'NR'
p617
I2550646385
sS'NS'
p618
I32458807204
sS'NT'
p619
I71720202984
sS'NU'
p620
I7465786219
sS'NV'
p621
I3435172018
sS'NW'
p622
I2850280693
sS'VN'
p623
I116774291
sS'TZ'
p624
I399047698
sS'TX'
p625
I384005616
sS'TY'
p626
I15214168398
sS'TV'
p627
I1368545035
sS'TW'
p628
I8118316093
sS'TT'
p629
I19222971337
sS'TU'
p630
I15817162046
sS'TR'
p631
I26996514264
sS'TS'
p632
I29972404314
sS'TP'
p633
I4481584579
sS'TQ'
p634
I172016016
sS'TN'
p635
I2772908209
sS'TO'
p636
I68548751664
sS'TL'
p637
I6510937489
sS'TM'
p638
I5594198669
sS'TJ'
p639
I536726231
sS'TK'
p640
I592138618
sS'TH'
p641
I133210262170
sS'TI'
p642
I79834588969
sS'TF'
p643
I3611139685
sS'TG'
p644
I1671158263
sS'TD'
p645
I3231292348
sS'TE'
p646
I80948650956
sS'TB'
p647
I3716332695
sS'TC'
p648
I7358005916
sS'TA'
p649
I42344542093
sS'AA'
p650
I1913489177
sS'AC'
p651
I31993660134
sS'AB'
p652
I15386005538
sS'AE'
p653
I1267738358
sS'AD'
p654
I23202347740
sS'AG'
p655
I18418672749
sS'AF'
p656
I5971635350
sS'AI'
p657
I20090957077
sS'AH'
p658
I2649442627
sS'AK'
p659
I6438563979
sS'AJ'
p660
I862401373
sS'AM'
p661
I22902383711
sS'AL'
p662
I64032793037
sS'AO'
p663
I969588635
sS'AN'
p664
I105422467512
sS'AQ'
p665
I882410135
sS'AP'
p666
I15049927877
sS'AS'
p667
I43550945165
sS'AR'
p668
I68756067210
sS'AU'
p669
I8610622447
sS'AT'
p670
I80609883139
sS'AW'
p671
I4177879274
sS'AV'
p672
I12702579090
sS'AY'
p673
I16749015766
sS'AX'
p674
I1830526601
sS'AZ'
p675
I1919288786
sS'VK'
p676
I21599286
s.