(dp0
S'A'
p1
I243662684512
sS'C'
p2
I113913698859
sS'B'
p3
I49798922187
sS'E'
p4
I349588141984
sS'D'
p5
I107605388542
sS'G'
p6
I63045208347
sS'F'
p7
I61328927423
sS'I'
p8
I223353030415
sS'H'
p9
I106367962556
sS'K'
p10
I24380950863
sS'J'
p11
I7637833834
sS'M'
p12
I84155576549
sS'L'
p13
I130649920346
sS'O'
p14
I228025627088
sS'N'
p15
I207910712159
sS'Q'
p16
I4218467887
sS'P'
p17
I77553040250
sS'S'
p18
I207080253606
sS'R'
p19
I201896673641
sS'U'
p20
I86950627146
sS'T'
p21
I247577342738
sS'W'
p22
I44294405401
sS'V'
p23
I34402346309
sS'Y'
p24
I52941043438
sS'X'
p25
I9151143994
sS'Z'
p26
I4192477980
s.