(dp0
S'gw'
p1
I1174624262
sS'gv'
p2
I241097967
sS'gu'
p3
I5967924547
sS'gt'
p4
I5752080734
sS'gs'
p5
I5910027525
sS'gr'
p6
I12028253431
sS'gq'
p7
I69240897
sS'gp'
p8
I1616306418
sS'gz'
p9
I105114918
sS'gy'
p10
I2323709882
sS'gx'
p11
I56198278
sS'gg'
p12
I1992235463
sS'gf'
p13
I1522326436
sS'ge'
p14
I28502237355
sS'gd'
p15
I1162739419
sS'gc'
p16
I1927221855
sS'gb'
p17
I1366578321
sS'ga'
p18
I14191497542
sS'go'
p19
I11021593048
sS'gn'
p20
I4692319436
sS'gm'
p21
I1480461977
sS'gl'
p22
I4011563990
sS'gk'
p23
I238985937
sS'gj'
p24
I158380167
sS'gi'
p25
I12005990636
sS'gh'
p26
I12038664661
sS'tz'
p27
I399047698
sS'tx'
p28
I384005616
sS'ty'
p29
I15214168398
sS'tv'
p30
I1368545035
sS'tw'
p31
I8118316093
sS'tt'
p32
I19222971337
sS'tu'
p33
I15817162046
sS'tr'
p34
I26996514264
sS'ts'
p35
I29972404314
sS'tp'
p36
I4481584579
sS'tq'
p37
I172016016
sS'tn'
p38
I2772908209
sS'to'
p39
I68548751664
sS'tl'
p40
I6510937489
sS'tm'
p41
I5594198669
sS'tj'
p42
I536726231
sS'tk'
p43
I592138618
sS'th'
p44
I133210262170
sS'ti'
p45
I79834588969
sS'tf'
p46
I3611139685
sS'tg'
p47
I1671158263
sS'td'
p48
I3231292348
sS'te'
p49
I80948650956
sS'tb'
p50
I3716332695
sS'tc'
p51
I7358005916
sS'ta'
p52
I42344542093
sS'jb'
p53
I62340028
sS'zl'
p54
I155799204
sS'zm'
p55
I84167126
sS'zn'
p56
I59963870
sS'zo'
p57
I1226090518
sS'zh'
p58
I99349469
sS'zi'
p59
I1424549625
sS'zj'
p60
I31370967
sS'zk'
p61
I37189199
sS'zd'
p62
I101168986
sS'ze'
p63
I3038306939
sS'zf'
p64
I45439062
sS'zg'
p65
I40237172
sS'za'
p66
I1550549207
sS'jc'
p67
I107858822
sS'zc'
p68
I99863167
sS'zx'
p69
I16061325
sS'zy'
p70
I202018221
sS'zz'
p71
I406963963
sS'zt'
p72
I75009362
sS'zu'
p73
I296673637
sS'zv'
p74
I25612956
sS'zw'
p75
I54956316
sS'zp'
p76
I60233607
sS'zq'
p77
I6170496
sS'zr'
p78
I95348467
sS'zs'
p79
I123498745
sS'mv'
p80
I242727741
sS'mz'
p81
I41663902
sS'ix'
p82
I1448111540
sS'vc'
p83
I267332451
sS'vh'
p84
I136916226
sS'vi'
p85
I23140348141
sS'vj'
p86
I15424672
sS'vk'
p87
I21599286
sS'vl'
p88
I138973795
sS'vm'
p89
I127476300
sS'vn'
p90
I116774291
sS'vo'
p91
I3540351272
sS'me'
p92
I50958591639
sS'md'
p93
I874654976
sS'mg'
p94
I575888276
sS'mf'
p95
I978327583
sS'ma'
p96
I40261070734
sS'mc'
p97
I1626785459
sS'mb'
p98
I7720936043
sS'mm'
p99
I7863945051
sS'ml'
p100
I1266359764
sS'mo'
p101
I21343638917
sS'mn'
p102
I956700910
sS'mi'
p103
I19090900236
sS'mh'
p104
I665327302
sS'mk'
p105
I156392461
sS'mj'
p106
I181720004
sS'mu'
p107
I6695170465
sS'mt'
p108
I2714425956
sS'mw'
p109
I853594935
sS'ij'
p110
I413267980
sS'mq'
p111
I41533036
sS'mp'
p112
I14257278755
sS'ms'
p113
I8187806253
sS'mr'
p114
I980047617
sS'vt'
p115
I189305399
sS'my'
p116
I4121819744
sS'mx'
p117
I127278984
sS'vu'
p118
I191219786
sS'vv'
p119
I69205951
sS'vw'
p120
I116491832
sS'vx'
p121
I47815439
sS'vz'
p122
I7573361
sS'fp'
p123
I1417227743
sS'fq'
p124
I59735805
sS'fr'
p125
I14439772192
sS'fs'
p126
I2218585525
sS'ft'
p127
I13171357353
sS'fu'
p128
I6162102012
sS'fv'
p129
I260726492
sS'fw'
p130
I839573399
sS'fx'
p131
I94629102
sS'fy'
p132
I1724190100
sS'fz'
p133
I36509757
sS'fa'
p134
I11428633961
sS'fb'
p135
I743537251
sS'fc'
p136
I1841861062
sS'fd'
p137
I897530021
sS'fe'
p138
I13440050156
sS'ff'
p139
I8927389303
sS'fg'
p140
I650480543
sS'fh'
p141
I949061474
sS'fi'
p142
I19753676090
sS'fj'
p143
I207854544
sS'fk'
p144
I148461915
sS'fl'
p145
I4335648043
sS'fm'
p146
I1242973272
sS'fn'
p147
I605786093
sS'fo'
p148
I32748744509
sS'sz'
p149
I182604914
sS'sy'
p150
I4676593607
sS'sx'
p151
I243932875
sS'ss'
p152
I31081241798
sS'sr'
p153
I4378996072
sS'sq'
p154
I750514602
sS'sp'
p155
I17010851034
sS'sw'
p156
I7312275570
sS'sv'
p157
I1317445135
sS'su'
p158
I18318104818
sS'st'
p159
I78728300226
sS'sk'
p160
I3854517035
sS'sj'
p161
I678346544
sS'si'
p162
I41483080358
sS'sh'
p163
I21322806441
sS'so'
p164
I31467005438
sS'sn'
p165
I4581713888
sS'sm'
p166
I7051919359
sS'sl'
p167
I5977618166
sS'sc'
p168
I16886526539
sS'sb'
p169
I5554765729
sS'sa'
p170
I31138171773
sS'sg'
p171
I2246645063
sS'sf'
p172
I6792861643
sS'se'
p173
I58165976437
sS'sd'
p174
I4313766677
sS'wq'
p175
I27284705
sS'lf'
p176
I3565589819
sS'lg'
p177
I1387253469
sS'ld'
p178
I12631807015
sS'le'
p179
I52533619401
sS'lb'
p180
I3160411900
sS'lc'
p181
I4046692044
sS'la'
p182
I35279652135
sS'ln'
p183
I1384111140
sS'lo'
p184
I28357992178
sS'll'
p185
I36610231690
sS'lm'
p186
I2961674921
sS'lj'
p187
I284682384
sS'lk'
p188
I1518763585
sS'lh'
p189
I1181528402
sS'li'
p190
I45239121467
sS'lv'
p191
I1803473089
sS'lw'
p192
I1550108402
sS'lt'
p193
I10910014701
sS'lu'
p194
I8610377071
sS'lr'
p195
I2690464933
sS'ls'
p196
I13556674443
sS'lp'
p197
I4956631224
sS'lq'
p198
I111266921
sS'lz'
p199
I115185658
sS'lx'
p200
I86895575
sS'ly'
p201
I16052501931
sS'yi'
p202
I4088737647
sS'yh'
p203
I1678109748
sS'yk'
p204
I377466618
sS'yj'
p205
I546404776
sS'ym'
p206
I3629941896
sS'yl'
p207
I2798711484
sS'yo'
p208
I20264440566
sS'yn'
p209
I2367224599
sS'ya'
p210
I6723589408
sS'yc'
p211
I4065809966
sS'yb'
p212
I2791607728
sS'ye'
p213
I7000720946
sS'yd'
p214
I2357064378
sS'yg'
p215
I1197449390
sS'yf'
p216
I2308211635
sS'yy'
p217
I396710835
sS'yx'
p218
I74171966
sS'yz'
p219
I202799496
sS'yq'
p220
I136052248
sS'yp'
p221
I4770576225
sS'ys'
p222
I10570642040
sS'yr'
p223
I3213028237
sS'yu'
p224
I849379055
sS'yt'
p225
I6272652335
sS'yw'
p226
I2650158989
sS'yv'
p227
I566509018
sS'em'
p228
I29776626954
sS'el'
p229
I37931534499
sS'eo'
p230
I14770877724
sS'en'
p231
I77314896004
sS'ei'
p232
I16135583953
sS'eh'
p233
I5682274341
sS'ek'
p234
I2534125107
sS'ej'
p235
I1155599707
sS'ee'
p236
I27451934708
sS'ed'
p237
I57514469508
sS'eg'
p238
I11512774220
sS'ef'
p239
I14743755990
sS'ea'
p240
I55939058323
sS'ec'
p241
I39836916955
sS'eb'
p242
I12666048968
sS'ey'
p243
I8418908993
sS'ex'
p244
I13356752941
sS'ez'
p245
I572494203
sS'eu'
p246
I4861907859
sS'et'
p247
I42812689527
sS'ew'
p248
I20003014022
sS'ev'
p249
I14977965012
sS'eq'
p250
I3453509796
sS'ep'
p251
I19436550393
sS'es'
p252
I97326307798
sS'er'
p253
I119214789533
sS'rt'
p254
I31174956946
sS'ru'
p255
I8479995978
sS'rv'
p256
I7048825612
sS'rw'
p257
I3123939253
sS'rp'
p258
I5964174774
sS'rq'
p259
I276576452
sS'rr'
p260
I8457557665
sS'rs'
p261
I31498209240
sS'rx'
p262
I177324040
sS'ry'
p263
I16071337298
sS'rz'
p264
I271040922
sS'rd'
p265
I14380342944
sS're'
p266
I108669181717
sS'rf'
p267
I4407369994
sS'rg'
p268
I6774701154
sS'ra'
p269
I46135420707
sS'rb'
p270
I3838019263
sS'rc'
p271
I14278737404
sS'rl'
p272
I6736958349
sS'rm'
p273
I13536350081
sS'rn'
p274
I11557521313
sS'ro'
p275
I46608666502
sS'rh'
p276
I2300596181
sS'ri'
p277
I48154583840
sS'rj'
p278
I467618387
sS'rk'
p279
I7673324341
sS'xj'
p280
I30189609
sS'xk'
p281
I38953406
sS'xh'
p282
I319250039
sS'xi'
p283
I1830392546
sS'xn'
p284
I135354237
sS'xo'
p285
I460487734
sS'xl'
p286
I214535838
sS'xm'
p287
I500340477
sS'xb'
p288
I306237503
sS'xc'
p289
I1625728079
sS'xa'
p290
I1718498310
sS'xf'
p291
I339528185
sS'xg'
p292
I135146866
sS'xd'
p293
I209666964
sS'xe'
p294
I1553965388
sS'xz'
p295
I23383121
sS'xx'
p296
I554737300
sS'xy'
p297
I372725127
sS'xr'
p298
I211474506
sS'xs'
p299
I408373665
sS'xp'
p300
I3378298285
sS'xq'
p301
I20714339
sS'xv'
p302
I153643160
sS'xw'
p303
I154494871
sS'xt'
p304
I3628673601
sS'xu'
p305
I407474891
sS'zb'
p306
I82447517
sS'kc'
p307
I719563902
sS'kb'
p308
I920890175
sS'ka'
p309
I3410386694
sS'kg'
p310
I471310827
sS'kf'
p311
I858798087
sS'ke'
p312
I14119208748
sS'kd'
p313
I444574347
sS'kk'
p314
I212180979
sS'kj'
p315
I197923765
sS'ki'
p316
I8615590792
sS'kh'
p317
I1062473733
sS'ko'
p318
I2259439291
sS'kn'
p319
I2428470642
sS'km'
p320
I718788756
sS'kl'
p321
I1241504553
sS'ks'
p322
I6218068120
sS'kr'
p323
I740459498
sS'kq'
p324
I37052361
sS'kp'
p325
I704408597
sS'kw'
p326
I604099193
sS'kv'
p327
I137367043
sS'ku'
p328
I678961264
sS'kt'
p329
I2071966322
sS'kz'
p330
I34039551
sS'ky'
p331
I961304416
sS'kx'
p332
I35373414
sS'jg'
p333
I28530574
sS'dn'
p334
I2569370944
sS'do'
p335
I17706639517
sS'dl'
p336
I3577701820
sS'dm'
p337
I4111096663
sS'dj'
p338
I819560690
sS'dk'
p339
I500625217
sS'dh'
p340
I2800725402
sS'di'
p341
I33302437545
sS'df'
p342
I3715422721
sS'dg'
p343
I2821158761
sS'dd'
p344
I6513992572
sS'de'
p345
I46344292825
sS'db'
p346
I6154952809
sS'dc'
p347
I4458726250
sS'da'
p348
I23279747379
sS'dz'
p349
I88576018
sS'dx'
p350
I128002023
sS'dy'
p351
I3212165655
sS'dv'
p352
I3577037604
sS'dw'
p353
I3860562254
sS'dt'
p354
I10976756096
sS'du'
p355
I10242237496
sS'dr'
p356
I7792756412
sS'ds'
p357
I14113090545
sS'dp'
p358
I3534926059
sS'dq'
p359
I226027310
sS'qq'
p360
I16554628
sS'qp'
p361
I35805858
sS'qs'
p362
I135719258
sS'qr'
p363
I82307906
sS'qu'
p364
I8281405449
sS'qt'
p365
I92435217
sS'qw'
p366
I38662144
sS'qv'
p367
I15697108
sS'qy'
p368
I6901470
sS'qx'
p369
I7684606
sS'qz'
p370
I4293975
sS'qa'
p371
I117748793
sS'qc'
p372
I52341229
sS'qb'
p373
I25058796
sS'qe'
p374
I25297860
sS'qd'
p375
I28407229
sS'qg'
p376
I15295164
sS'qf'
p377
I42521152
sS'qi'
p378
I99281600
sS'qh'
p379
I29313112
sS'qk'
p380
I8123073
sS'qj'
p381
I6944827
sS'qm'
p382
I34592319
sS'ql'
p383
I207584203
sS'qo'
p384
I25047812
sS'qn'
p385
I28847084
sS'jx'
p386
I5682177
sS'jy'
p387
I10880910
sS'jz'
p388
I8070227
sS'jt'
p389
I44567068
sS'ju'
p390
I4054670856
sS'jv'
p391
I43025818
sS'wg'
p392
I230184684
sS'wf'
p393
I511762732
sS'we'
p394
I18727322433
sS'wd'
p395
I598852489
sS'wc'
p396
I739335953
sS'wb'
p397
I541505398
sS'wa'
p398
I16616645822
sS'wo'
p399
I11770868120
sS'wn'
p400
I4496647198
sS'wm'
p401
I715128430
sS'wl'
p402
I994356456
sS'wk'
p403
I162689468
sS'wj'
p404
I266620064
sS'wi'
p405
I21486195066
sS'wh'
p406
I12042164275
sS'ww'
p407
I1962296312
sS'wv'
p408
I149685312
sS'wu'
p409
I285828898
sS'jo'
p410
I4529294446
sS'ws'
p411
I6152300106
sS'wr'
p412
I2042709489
sS'jj'
p413
I36263263
sS'wp'
p414
I812895043
sS'jd'
p415
I72160777
sS'je'
p416
I3747477349
sS'jf'
p417
I37277622
sS'js'
p418
I116730486
sS'ja'
p419
I4192981909
sS'wy'
p420
I893249955
sS'wx'
p421
I114261838
sS'jl'
p422
I41748140
sS'jm'
p423
I75950627
sS'jn'
p424
I49314888
sS'wt'
p425
I1807415715
sS'jh'
p426
I40926707
sS'ji'
p427
I483957192
sS'ck'
p428
I13780629739
sS'cj'
p429
I97724802
sS'ci'
p430
I15114311349
sS'ch'
p431
I34170408619
sS'co'
p432
I52490369344
sS'cn'
p433
I661266058
sS'cm'
p434
I789252854
sS'cl'
p435
I11632840915
sS'cc'
p436
I5922990413
sS'cb'
p437
I460498864
sS'ca'
p438
I35964886206
sS'jk'
p439
I95237627
sS'cg'
p440
I380593440
sS'cf'
p441
I503867826
sS'ce'
p442
I37978263270
sS'cd'
p443
I1555353527
sS'cz'
p444
I141710058
sS'cy'
p445
I4025081908
sS'cx'
p446
I70060659
sS'cs'
p447
I4078415715
sS'cr'
p448
I9927779823
sS'cq'
p449
I246622061
sS'cp'
p450
I943130273
sS'cw'
p451
I314285016
sS'cv'
p452
I364293955
sS'cu'
p453
I9565348552
sS'ct'
p454
I28898718663
sS'pr'
p455
I31268978905
sS'ps'
p456
I4936994208
sS'pp'
p457
I9875069347
sS'pq'
p458
I102094564
sS'pv'
p459
I186219865
sS'pw'
p460
I465388310
sS'pt'
p461
I6901392028
sS'pu'
p462
I7257174438
sS'pz'
p463
I51530668
sS'px'
p464
I87171181
sS'py'
p465
I2064349214
sS'wz'
p466
I101939100
sS'pb'
p467
I553313511
sS'pc'
p468
I1449681886
sS'pa'
p469
I24898597250
sS'pf'
p470
I750300132
sS'pg'
p471
I575977478
sS'pd'
p472
I1487379715
sS'pe'
p473
I25126480018
sS'pj'
p474
I75706008
sS'pk'
p475
I167240984
sS'ph'
p476
I7561343147
sS'pi'
p477
I9629601171
sS'pn'
p478
I411327563
sS'po'
p479
I23703275501
sS'pl'
p480
I17001616925
sS'pm'
p481
I3267674878
sS'iy'
p482
I121243061
sS'va'
p483
I10061548421
sS'vb'
p484
I159300324
sS'iz'
p485
I3432225830
sS'vd'
p486
I948786360
sS've'
p487
I42386634729
sS'vf'
p488
I70032606
sS'vg'
p489
I159448024
sS'iq'
p490
I714359764
sS'ip'
p491
I8282654910
sS'is'
p492
I56531345460
sS'ir'
p493
I17041448765
sS'iu'
p494
I1065701405
sS'it'
p495
I60786494374
sS'iw'
p496
I937945354
sS'iv'
p497
I15535972775
sS'ii'
p498
I1153899993
sS'ih'
p499
I828926953
sS'ik'
p500
I3004540659
sS'vs'
p501
I517563727
sS'im'
p502
I15472128922
sS'il'
p503
I30603240902
sS'io'
p504
I45866820943
sS'in'
p505
I134812613554
sS'ia'
p506
I19042814662
sS'vy'
p507
I224764337
sS'ic'
p508
I45663138305
sS'ib'
p509
I5903154131
sS'ie'
p510
I24933647247
sS'id'
p511
I17905542743
sS'ig'
p512
I16254923119
sS'if'
p513
I10654256107
sS'vr'
p514
I217059171
sS'jw'
p515
I34888766
sS'jp'
p516
I158759746
sS'jq'
p517
I2858953
sS'jr'
p518
I137430055
sS'bd'
p519
I467149365
sS'be'
p520
I27212687351
sS'bf'
p521
I218548224
sS'bg'
p522
I168267558
sS'ba'
p523
I13622702607
sS'bb'
p524
I1170784338
sS'bc'
p525
I851766051
sS'bl'
p526
I14155655885
sS'bm'
p527
I1060633477
sS'bn'
p528
I353904700
sS'bo'
p529
I14280375980
sS'bh'
p530
I320626864
sS'bi'
p531
I8714189475
sS'bj'
p532
I1355781515
sS'bk'
p533
I70233089
sS'bt'
p534
I810975838
sS'bu'
p535
I11550713430
sS'bv'
p536
I152346227
sS'bw'
p537
I197562503
sS'bp'
p538
I443158074
sS'bq'
p539
I27287934
sS'br'
p540
I7470955906
sS'bs'
p541
I4406092091
sS'bx'
p542
I64498535
sS'by'
p543
I9859174066
sS'bz'
p544
I57979840
sS'oo'
p545
I17541371381
sS'on'
p546
I100461773921
sS'om'
p547
I38270823174
sS'ol'
p548
I23553044761
sS'ok'
p549
I6337630431
sS'oj'
p550
I1211299844
sS'oi'
p551
I6197247704
sS'oh'
p552
I2835788339
sS'og'
p553
I9537105190
sS'of'
p554
I44948393239
sS'oe'
p555
I3398500076
sS'od'
p556
I14558819018
sS'oc'
p557
I13671886937
sS'ob'
p558
I8520934320
sS'oa'
p559
I8232231588
sS'oz'
p560
I450998032
sS'oy'
p561
I3224756847
sS'ox'
p562
I1680672450
sS'ow'
p563
I19972624694
sS'ov'
p564
I11763317241
sS'ou'
p565
I52913816186
sS'ot'
p566
I32419391981
sS'os'
p567
I19821367131
sS'or'
p568
I85998433585
sS'oq'
p569
I137285683
sS'op'
p570
I19077697278
sS'hz'
p571
I150561714
sS'hx'
p572
I49621720
sS'hy'
p573
I2609376360
sS'hr'
p574
I4812087922
sS'hs'
p575
I2518213365
sS'hp'
p576
I1493976373
sS'hq'
p577
I217009782
sS'hv'
p578
I268620105
sS'hw'
p579
I1106455831
sS'ht'
p580
I10529516272
sS'hu'
p581
I3823520600
sS'hj'
p582
I189902193
sS'hk'
p583
I202305693
sS'hh'
p584
I780236030
sS'hi'
p585
I34041908708
sS'hn'
p586
I2670439822
sS'ho'
p587
I33037260281
sS'hl'
p588
I1416667280
sS'hm'
p589
I1825937267
sS'hb'
p590
I1037322379
sS'hc'
p591
I1611390370
sS'ha'
p592
I41206270659
sS'hf'
p593
I943913834
sS'hg'
p594
I437064808
sS'hd'
p595
I1040932622
sS'he'
p596
I106498528786
sS'uy'
p597
I1633379480
sS'ux'
p598
I605592840
sS'uz'
p599
I294900207
sS'uu'
p600
I170247936
sS'ut'
p601
I22499209523
sS'uw'
p602
I731912653
sS'uv'
p603
I409837804
sS'uq'
p604
I59614067
sS'up'
p605
I9388602522
sS'us'
p606
I30677125454
sS'ur'
p607
I35957660877
sS'um'
p608
I10007053570
sS'ul'
p609
I15752059735
sS'uo'
p610
I911010799
sS'un'
p611
I22987447404
sS'ui'
p612
I6967198562
sS'uh'
p613
I524903236
sS'uk'
p614
I1372734372
sS'uj'
p615
I145269456
sS'ue'
p616
I8457625777
sS'ud'
p617
I6346747965
sS'ug'
p618
I5736801207
sS'uf'
p619
I1416534510
sS'ua'
p620
I8227068864
sS'uc'
p621
I10702575520
sS'ub'
p622
I6765681016
sS'aa'
p623
I1913489177
sS'ac'
p624
I31993660134
sS'ab'
p625
I15386005538
sS'ae'
p626
I1267738358
sS'ad'
p627
I23202347740
sS'ag'
p628
I18418672749
sS'af'
p629
I5971635350
sS'ai'
p630
I20090957077
sS'ah'
p631
I2649442627
sS'ak'
p632
I6438563979
sS'aj'
p633
I862401373
sS'am'
p634
I22902383711
sS'al'
p635
I64032793037
sS'ao'
p636
I969588635
sS'an'
p637
I105422467512
sS'aq'
p638
I882410135
sS'ap'
p639
I15049927877
sS'as'
p640
I43550945165
sS'ar'
p641
I68756067210
sS'au'
p642
I8610622447
sS'at'
p643
I80609883139
sS'aw'
p644
I4177879274
sS'av'
p645
I12702579090
sS'ay'
p646
I16749015766
sS'ax'
p647
I1830526601
sS'az'
p648
I1919288786
sS'nh'
p649
I2792670858
sS'ni'
p650
I25359266664
sS'nj'
p651
I1346516080
sS'nk'
p652
I5529228890
sS'nl'
p653
I6853881320
sS'nm'
p654
I4584364328
sS'nn'
p655
I7623559267
sS'no'
p656
I30618138499
sS'na'
p657
I31835157885
sS'nb'
p658
I3413336523
sS'nc'
p659
I24737829432
sS'nd'
p660
I68018862077
sS'ne'
p661
I48426255131
sS'nf'
p662
I8729196286
sS'ng'
p663
I54671896948
sS'nx'
p664
I234953096
sS'ny'
p665
I7149394479
sS'nz'
p666
I459403891
sS'np'
p667
I3592621275
sS'nq'
p668
I331688568
sS'nr'
p669
I2550646385
sS'ns'
p670
I32458807204
sS'nt'
p671
I71720202984
sS'nu'
p672
I7465786219
sS'nv'
p673
I3435172018
sS'nw'
p674
I2850280693
sS'vp'
p675
I160573271
sS'vq'
p676
I8637649
s.