(dp0
S'a'
p1
I1105694254596
sS'c'
p2
I506622930010
sS'b'
p3
I212086051991
sS'e'
p4
I1590314562638
sS'd'
p5
I457293000369
sS'g'
p6
I269648575512
sS'f'
p7
I264960497480
sS'i'
p8
I1041848015864
sS'h'
p9
I502543137132
sS'k'
p10
I104978086778
sS'j'
p11
I29538384885
sS'm'
p12
I370470471802
sS'l'
p13
I588340293741
sS'o'
p14
I1082805351650
sS'n'
p15
I948311841547
sS'q'
p16
I17597990644
sS'p'
p17
I330759798435
sS's'
p18
I862603131122
sS'r'
p19
I915566359183
sS'u'
p20
I411372322697
sS't'
p21
I1107449732068
sS'w'
p22
I187456536002
sS'v'
p23
I159858105954
sS'y'
p24
I214217893289
sS'x'
p25
I40314284168
sS'z'
p26
I18998938933
s.